MPASM 5.87        SERIALINTERRUPTCOUNTER.ASM   1-27-2021  12:24:50         PAGE  1


LOC  OBJECT CODE     LINE SOURCE TEXT
  VALUE

                      00001 ;-----------------------------------------------
                      00002 ; SerialInterruptCounter.asm
                      00003 ; Author: Johnny Console / George Townsend
                      00004 ; COSC 4086 - Fourth Year Project
                      00005 ; Interrupt driven serial TX/RX
                      00006 ; Device - PIC18F47Q10
                      00007 ; Peripherals - EUSART1
                      00008 ; Interrupt Driven: Yes
                      00009 ;-----------------------------------------------
                      00010     INCLUDE <p18f47q10.inc>
                      00001         LIST
                      00002 
                      00003 ;==========================================================================
                      00004 ; Build date : Jan 06 2020
                      00005 ;  MPASM PIC18F47Q10 processor include
                      00006 ; 
                      00007 ;  (c) Copyright 1999-2020 Microchip Technology, All rights reserved
                      00008 ;==========================================================================
                      00009 
                      07177         LIST
                      00011     
                      00012 ; CONFIG1L
                      00013     CONFIG  FEXTOSC = OFF         
                      00014     CONFIG  RSTOSC = HFINTOSC_64MHZ
                      00015 
                      00016     ; CONFIG1H
                      00017     CONFIG  CLKOUTEN = OFF        
                      00018     CONFIG  CSWEN = ON            
                      00019     CONFIG  FCMEN = ON            
                      00020 
                      00021     ; CONFIG2L
                      00022     CONFIG  MCLRE = INTMCLR       
                      00023     CONFIG  PWRTE = OFF           
                      00024     CONFIG  LPBOREN = OFF         
                      00025     CONFIG  BOREN = SBORDIS       
                      00026 
                      00027     ; CONFIG2H
                      00028     CONFIG  BORV = VBOR_190       
                      00029     CONFIG  ZCD = OFF             
                      00030     CONFIG  PPS1WAY = OFF         
                      00031     CONFIG  STVREN = ON           
                      00032     CONFIG  XINST = OFF          
                      00033 
                      00034     ; CONFIG3L
                      00035     CONFIG  WDTCPS = WDTCPS_31    
                      00036     CONFIG  WDTE = OFF            
                      00037 
                      00038     ; CONFIG3H
                      00039     CONFIG  WDTCWS = WDTCWS_7    
                      00040     CONFIG  WDTCCS = SC           
                      00041   
                      00042     ; CONFIG4L
                      00043     CONFIG  WRT0 = OFF           
MPASM 5.87        SERIALINTERRUPTCOUNTER.ASM   1-27-2021  12:24:50         PAGE  2


LOC  OBJECT CODE     LINE SOURCE TEXT
  VALUE

                      00044     CONFIG  WRT1 = OFF            
                      00045     CONFIG  WRT2 = OFF            
                      00046     CONFIG  WRT3 = OFF            
                      00047     CONFIG  WRT4 = OFF            
                      00048     CONFIG  WRT5 = OFF            
                      00049     CONFIG  WRT6 = OFF   
                      00050     CONFIG  WRT7 = OFF        
                      00051 
                      00052     
                      00053     
                      00054     ; CONFIG4H
                      00055     CONFIG  WRTC = OFF           
                      00056     CONFIG  WRTB = OFF      
                      00057     CONFIG  WRTD = OFF       
                      00058     CONFIG  SCANE = ON            
                      00059     CONFIG  LVP = ON
                      00060 
                      00061     ORG 0x00
000000 EC?? F???      00062     CALL Init
000004 EF?? F???      00063     GOTO Mainline
                      00064     ORG 0x08
000008 EF?? F???      00065     GOTO ISR
                      00066     
                      00067     
00000C                00068 Init:  
00000C 010E           00069     BANKSEL RX1PPS          ;Configure RC7 as RX1
00000E 0E17           00070     MOVLW 0x17    
000010 6FB0           00071     MOVWF RX1PPS
                      00072     
000012 010E           00073     BANKSEL RC6PPS          ;Configure RC6 as TX1
000014 0E09           00074     MOVLW 0x09
000016 6FF8           00075     MOVWF RC6PPS
                      00076     
000018 010F           00077     BANKSEL ANSELC
00001A 6B1C           00078     CLRF ANSELC
00001C 010F           00079     BANKSEL TRISC
00001E 8E89           00080     BSF TRISC, 7            ;RC7 is Input for RX
000020 9C89           00081     BCF TRISC, 6            ;RC6 is Output for TX
                      00082     
000022 010F           00083     BANKSEL SP1BRGL         ;Configure Baud Generator
000024 0E22           00084     MOVLW d'34'
000026 6E9A           00085     MOVWF SP1BRGL
000028 6A9B           00086     CLRF SP1BRGH
                      00087     
00002A 010F           00088     BANKSEL BAUD1CON        ;Configure BAUDCON - Set Baud rate
00002C 6A9E           00089     CLRF BAUD1CON
00002E 869E           00090     bsf BAUD1CON, BRG16
000030 010F           00091     BANKSEL RC1REG
000032 5098           00092     MOVF RC1REG,W           ; Clear the working register
                      00093     
000034 010F           00094     BANKSEL RC1STA
000036 8E9C           00095     BSF RC1STA,SPEN
000038 889C           00096     BSF RC1STA,CREN  
MPASM 5.87        SERIALINTERRUPTCOUNTER.ASM   1-27-2021  12:24:50         PAGE  3


LOC  OBJECT CODE     LINE SOURCE TEXT
  VALUE

                      00097     
00003A 010F           00098     BANKSEL TX1STA    
00003C 9C9D           00099     BCF TX1STA, TX9         ;Select 8-bit TX
00003E 8A9D           00100     BSF TX1STA, TXEN        ;TX Enabled
000040 989D           00101     BCF TX1STA, SYNC_TX1STA ;Use Asynchronous Mode
000042 949D           00102     BCF TX1STA, BRGH        ;Use Low Baud Mode
                      00103     
                      00104     
                      00105     
000044 6A00           00106     CLRF 0,0                ;Configure Interrupts
000046 010E           00107     BANKSEL IPR3
000048 9BB8           00108     BCF IPR3,RC1IP
00004A 010E           00109     BANKSEL PIE3
00004C 8BC0           00110     BSF PIE3,RC1IE
00004E 010F           00111     BANKSEL INTCON
000050 9AF2           00112     BCF INTCON,IPEN
000052 8CF2           00113     BSF INTCON,PEIE_GIEL
000054 8EF2           00114     BSF INTCON,GIE_GIEH
000056 0012           00115     RETURN
                      00116     
000058                00117 ISR:
000058 010E           00118     BANKSEL PIR3            ;Interrupt Service Routine
00005A ABC8           00119     BTFSS   PIR3,RC1IF      ;If not serial RX, return
00005C 0010           00120     RETFIE
00005E 010F           00121     BANKSEL RC1REG
000060 5098           00122     MOVF    RC1REG,w        ;Receive the character
000062 9BC8           00123     BCF    PIR3,RC1IF
000064 0E0C           00124     MOVLW   0x0c            ;Clear screen
000066 010F           00125     BANKSEL TX1REG
000068 6E99           00126     MOVWF   TX1REG
00006A 2A00           00127     INCF    0,1,0           ;Print the new counter
00006C 0E07           00128     MOVLW   7
00006E 1400           00129     ANDWF   0,0,0
000070 1230           00130     IORWF   0x30
000072 010F           00131     BANKSEL TX1REG
000074 6E99           00132     MOVWF    TX1REG
                      00133     
000076 0010           00134     RETFIE
                      00135   
000078                00136 Mainline:
000078 010E           00137     BANKSEL PIR3
00007A                00138 WaitRX:
00007A ABC8           00139     BTFSS PIR3, RC1IF       ;While transmitting, wait 
00007C EF?? F???      00140     GOTO WaitRX
                      00141     
000080 010F           00142     BANKSEL RC1REG    
000082 5098           00143     MOVF RC1REG,W           ;Move Character to transmit register
                      00144     
000084 010F           00145     BANKSEL TX1STA
                      00146 
000086                00147 WaitTX:
000086 A29D           00148     BTFSS TX1STA, TRMT      ;While transmitting, wait
000088 EF?? F???      00149     GOTO WaitTX
MPASM 5.87        SERIALINTERRUPTCOUNTER.ASM   1-27-2021  12:24:50         PAGE  4


LOC  OBJECT CODE     LINE SOURCE TEXT
  VALUE

                      00150     
00008C 0A01           00151     XORLW 0x01
00008E 010F           00152     BANKSEL TX1REG
000090 6E99           00153     MOVWF TX1REG
                      00154     
000092 EF?? F???      00155     GOTO Mainline           ;repeat loop
                      00156     END
MPASM 5.87        SERIALINTERRUPTCOUNTER.ASM   1-27-2021  12:24:50         PAGE  5


SYMBOL TABLE
  LABEL                             VALUE 

A                                 00000000
ABDEN                             00000000
ABDOVF                            00000007
ACC0                              00000000
ACC1                              00000001
ACC10                             00000002
ACC11                             00000003
ACC12                             00000004
ACC13                             00000005
ACC14                             00000006
ACC15                             00000007
ACC2                              00000002
ACC3                              00000003
ACC4                              00000004
ACC5                              00000005
ACC6                              00000006
ACC7                              00000007
ACC8                              00000000
ACC9                              00000001
ACCESS                            00000000
ACCM                              00000004
ACKDT                             00000005
ACKEN                             00000004
ACKSTAT                           00000006
ACKTIM                            00000007
ADACC                             00000F6B
ADACC0                            00000000
ADACC1                            00000001
ADACC10                           00000002
ADACC11                           00000003
ADACC12                           00000004
ADACC13                           00000005
ADACC14                           00000006
ADACC15                           00000007
ADACC2                            00000002
ADACC3                            00000003
ADACC4                            00000004
ADACC5                            00000005
ADACC6                            00000006
ADACC7                            00000007
ADACC8                            00000000
ADACC9                            00000001
ADACCH                            00000F6C
ADACCL                            00000F6B
ADACLR                            00000003
ADACQ                             00000F57
ADACQ0                            00000000
ADACQ1                            00000001
ADACQ2                            00000002
ADACQ3                            00000003
ADACQ4                            00000004
ADACQ5                            00000005
ADACQ6                            00000006
MPASM 5.87        SERIALINTERRUPTCOUNTER.ASM   1-27-2021  12:24:50         PAGE  6


SYMBOL TABLE
  LABEL                             VALUE 

ADACQ7                            00000007
ADACT                             00000F51
ADACT0                            00000000
ADACT1                            00000001
ADACT2                            00000002
ADACT3                            00000003
ADACT4                            00000004
ADACTPPS                          00000EA9
ADACTPPS0                         00000000
ADACTPPS1                         00000001
ADACTPPS2                         00000002
ADACTPPS3                         00000003
ADACTPPS4                         00000004
ADAOV                             00000007
ADCALC0                           00000004
ADCALC1                           00000005
ADCALC2                           00000006
ADCAP                             00000F58
ADCAP0                            00000000
ADCAP1                            00000001
ADCAP2                            00000002
ADCAP3                            00000003
ADCAP4                            00000004
ADCLK                             00000F52
ADCMD                             00000005
ADCNT                             00000F62
ADCNT0                            00000000
ADCNT1                            00000001
ADCNT2                            00000002
ADCNT3                            00000003
ADCNT4                            00000004
ADCNT5                            00000005
ADCNT6                            00000006
ADCNT7                            00000007
ADCON0                            00000F5B
ADCON1                            00000F54
ADCON2                            00000F55
ADCON3                            00000F56
ADCONT                            00000006
ADCRS0                            00000004
ADCRS1                            00000005
ADCRS2                            00000006
ADCS                              00000004
ADCS0                             00000000
ADCS1                             00000001
ADCS2                             00000002
ADCS3                             00000003
ADCS4                             00000004
ADCS5                             00000005
ADDEN                             00000003
ADDSEN                            00000000
ADERR                             00000F69
ADERR0                            00000000
MPASM 5.87        SERIALINTERRUPTCOUNTER.ASM   1-27-2021  12:24:50         PAGE  7


SYMBOL TABLE
  LABEL                             VALUE 

ADERR1                            00000001
ADERR10                           00000002
ADERR11                           00000003
ADERR12                           00000004
ADERR13                           00000005
ADERR14                           00000006
ADERR15                           00000007
ADERR2                            00000002
ADERR3                            00000003
ADERR4                            00000004
ADERR5                            00000005
ADERR6                            00000006
ADERR7                            00000007
ADERR8                            00000000
ADERR9                            00000001
ADERRH                            00000F6A
ADERRL                            00000F69
ADFLTR                            00000F6D
ADFLTR0                           00000000
ADFLTR1                           00000001
ADFLTR10                          00000002
ADFLTR11                          00000003
ADFLTR12                          00000004
ADFLTR13                          00000005
ADFLTR14                          00000006
ADFLTR15                          00000007
ADFLTR2                           00000002
ADFLTR3                           00000003
ADFLTR4                           00000004
ADFLTR5                           00000005
ADFLTR6                           00000006
ADFLTR7                           00000007
ADFLTR8                           00000000
ADFLTR9                           00000001
ADFLTRH                           00000F6E
ADFLTRL                           00000F6D
ADFM                              00000002
ADFM0                             00000002
ADFVR0                            00000000
ADFVR1                            00000001
ADGO                              00000000
ADGPOL                            00000005
ADIE                              00000000
ADIF                              00000000
ADIP                              00000000
ADIPEN                            00000006
ADLTH                             00000F65
ADLTH0                            00000000
ADLTH1                            00000001
ADLTH10                           00000002
ADLTH11                           00000003
ADLTH12                           00000004
ADLTH13                           00000005
MPASM 5.87        SERIALINTERRUPTCOUNTER.ASM   1-27-2021  12:24:50         PAGE  8


SYMBOL TABLE
  LABEL                             VALUE 

ADLTH14                           00000006
ADLTH15                           00000007
ADLTH2                            00000002
ADLTH3                            00000003
ADLTH4                            00000004
ADLTH5                            00000005
ADLTH6                            00000006
ADLTH7                            00000007
ADLTH8                            00000000
ADLTH9                            00000001
ADLTHH                            00000F66
ADLTHL                            00000F65
ADLTHR                            00000005
ADMATH                            00000004
ADMD0                             00000000
ADMD1                             00000001
ADMD2                             00000002
ADMSK1                            00000001
ADMSK2                            00000002
ADMSK3                            00000003
ADMSK4                            00000004
ADMSK5                            00000005
ADNREF                            00000004
ADOEN                             00000002
ADON                              00000007
ADOR                              00000002
ADPCH                             00000F5A
ADPCH0                            00000000
ADPCH1                            00000001
ADPCH2                            00000002
ADPCH3                            00000003
ADPCH4                            00000004
ADPCH5                            00000005
ADPPOL                            00000007
ADPRE                             00000F59
ADPRE0                            00000000
ADPRE1                            00000001
ADPRE2                            00000002
ADPRE3                            00000003
ADPRE4                            00000004
ADPRE5                            00000005
ADPRE6                            00000006
ADPRE7                            00000007
ADPREF0                           00000000
ADPREF1                           00000001
ADPREV                            00000F5C
ADPREV0                           00000000
ADPREV1                           00000001
ADPREV10                          00000002
ADPREV11                          00000003
ADPREV12                          00000004
ADPREV13                          00000005
ADPREV14                          00000006
MPASM 5.87        SERIALINTERRUPTCOUNTER.ASM   1-27-2021  12:24:50         PAGE  9


SYMBOL TABLE
  LABEL                             VALUE 

ADPREV15                          00000007
ADPREV2                           00000002
ADPREV3                           00000003
ADPREV4                           00000004
ADPREV5                           00000005
ADPREV6                           00000006
ADPREV7                           00000007
ADPREV8                           00000000
ADPREV9                           00000001
ADPREVH                           00000F5D
ADPREVL                           00000F5C
ADPSIS                            00000007
ADREF                             00000F53
ADRES                             00000F5E
ADRES0                            00000000
ADRES1                            00000001
ADRES10                           00000002
ADRES11                           00000003
ADRES12                           00000004
ADRES13                           00000005
ADRES14                           00000006
ADRES15                           00000007
ADRES2                            00000002
ADRES3                            00000003
ADRES4                            00000004
ADRES5                            00000005
ADRES6                            00000006
ADRES7                            00000007
ADRES8                            00000000
ADRES9                            00000001
ADRESH                            00000F5F
ADRESL                            00000F5E
ADRPT                             00000F61
ADRPT0                            00000000
ADRPT1                            00000001
ADRPT2                            00000002
ADRPT3                            00000003
ADRPT4                            00000004
ADRPT5                            00000005
ADRPT6                            00000006
ADRPT7                            00000007
ADSOI                             00000003
ADSTAT                            00000F60
ADSTAT0                           00000000
ADSTAT1                           00000001
ADSTAT2                           00000002
ADSTPT                            00000F63
ADSTPT0                           00000000
ADSTPT1                           00000001
ADSTPT10                          00000002
ADSTPT11                          00000003
ADSTPT12                          00000004
ADSTPT13                          00000005
MPASM 5.87        SERIALINTERRUPTCOUNTER.ASM   1-27-2021  12:24:50         PAGE 10


SYMBOL TABLE
  LABEL                             VALUE 

ADSTPT14                          00000006
ADSTPT15                          00000007
ADSTPT2                           00000002
ADSTPT3                           00000003
ADSTPT4                           00000004
ADSTPT5                           00000005
ADSTPT6                           00000006
ADSTPT7                           00000007
ADSTPT8                           00000000
ADSTPT9                           00000001
ADSTPTH                           00000F64
ADSTPTL                           00000F63
ADTIE                             00000001
ADTIF                             00000001
ADTIP                             00000001
ADTMD0                            00000000
ADTMD1                            00000001
ADTMD2                            00000002
ADUTH                             00000F67
ADUTH0                            00000000
ADUTH1                            00000001
ADUTH10                           00000002
ADUTH11                           00000003
ADUTH12                           00000004
ADUTH13                           00000005
ADUTH14                           00000006
ADUTH15                           00000007
ADUTH2                            00000002
ADUTH3                            00000003
ADUTH4                            00000004
ADUTH5                            00000005
ADUTH6                            00000006
ADUTH7                            00000007
ADUTH8                            00000000
ADUTH9                            00000001
ADUTHH                            00000F68
ADUTHL                            00000F67
ADUTHR                            00000006
AHEN                              00000001
ANSELA                            00000F0C
ANSELA0                           00000000
ANSELA1                           00000001
ANSELA2                           00000002
ANSELA3                           00000003
ANSELA4                           00000004
ANSELA5                           00000005
ANSELA6                           00000006
ANSELA7                           00000007
ANSELB                            00000F14
ANSELB0                           00000000
ANSELB1                           00000001
ANSELB2                           00000002
ANSELB3                           00000003
MPASM 5.87        SERIALINTERRUPTCOUNTER.ASM   1-27-2021  12:24:50         PAGE 11


SYMBOL TABLE
  LABEL                             VALUE 

ANSELB4                           00000004
ANSELB5                           00000005
ANSELB6                           00000006
ANSELB7                           00000007
ANSELC                            00000F1C
ANSELC0                           00000000
ANSELC1                           00000001
ANSELC2                           00000002
ANSELC3                           00000003
ANSELC4                           00000004
ANSELC5                           00000005
ANSELC6                           00000006
ANSELC7                           00000007
ANSELD                            00000F21
ANSELD0                           00000000
ANSELD1                           00000001
ANSELD2                           00000002
ANSELD3                           00000003
ANSELD4                           00000004
ANSELD5                           00000005
ANSELD6                           00000006
ANSELD7                           00000007
ANSELE                            00000F29
ANSELE0                           00000000
ANSELE1                           00000001
ANSELE2                           00000002
AS0E                              00000000
AS1E                              00000001
AS2E                              00000002
AS3E                              00000003
AS4E                              00000004
AS5E                              00000005
BANKED                            00000001
BAUD1CON                          00000F9E
BAUD2CON                          00000E9A
BAUDCON                           00000F9E
BAUDCON1                          00000F9E
BAUDCON2                          00000E9A
BAUDCTL                           00000F9E
BAUDCTL1                          00000F9E
BAUDCTL2                          00000E9A
BCL1IE                            00000001
BCL1IF                            00000001
BCL1IP                            00000001
BCL2IE                            00000003
BCL2IF                            00000003
BCL2IP                            00000003
BCLIE                             00000001
BCLIF                             00000001
BCLIP                             00000001
BF                                00000000
BIT                               00000000
BOEN                              00000004
MPASM 5.87        SERIALINTERRUPTCOUNTER.ASM   1-27-2021  12:24:50         PAGE 12


SYMBOL TABLE
  LABEL                             VALUE 

BOR                               00000000
BORCON                            00000EDB
BORRDY                            00000000
BRG16                             00000003
BRGH                              00000002
BSR                               00000FE0
BUSY                              00000005
C                                 00000000
C1EN                              00000007
C1HYS                             00000001
C1IE                              00000000
C1IF                              00000000
C1INTN                            00000000
C1INTP                            00000001
C1IP                              00000000
C1NCH0                            00000000
C1NCH1                            00000001
C1NCH2                            00000002
C1OUT                             00000006
C1PCH0                            00000000
C1PCH1                            00000001
C1PCH2                            00000002
C1POL                             00000004
C1SYNC                            00000000
C1TSEL0                           00000000
C1TSEL1                           00000001
C2EN                              00000007
C2HYS                             00000001
C2IE                              00000001
C2IF                              00000001
C2INTN                            00000000
C2INTP                            00000001
C2IP                              00000001
C2NCH0                            00000000
C2NCH1                            00000001
C2NCH2                            00000002
C2OUT                             00000006
C2PCH0                            00000000
C2PCH1                            00000001
C2PCH2                            00000002
C2POL                             00000004
C2SYNC                            00000000
C2TSEL0                           00000002
C2TSEL1                           00000003
CCP1CAP                           00000FAC
CCP1CON                           00000FAB
CCP1CTS0                          00000000
CCP1CTS1                          00000001
CCP1EN                            00000007
CCP1FMT                           00000004
CCP1IE                            00000000
CCP1IF                            00000000
CCP1IP                            00000000
MPASM 5.87        SERIALINTERRUPTCOUNTER.ASM   1-27-2021  12:24:50         PAGE 13


SYMBOL TABLE
  LABEL                             VALUE 

CCP1MD                            00000000
CCP1MODE0                         00000000
CCP1MODE1                         00000001
CCP1MODE2                         00000002
CCP1MODE3                         00000003
CCP1OUT                           00000005
CCP1PPS                           00000EAA
CCP1PPS0                          00000000
CCP1PPS1                          00000001
CCP1PPS2                          00000002
CCP1PPS3                          00000003
CCP1PPS4                          00000004
CCP2CAP                           00000FA8
CCP2CON                           00000FA7
CCP2CTS0                          00000000
CCP2CTS1                          00000001
CCP2EN                            00000007
CCP2FMT                           00000004
CCP2IE                            00000001
CCP2IF                            00000001
CCP2IP                            00000001
CCP2MD                            00000001
CCP2MODE0                         00000000
CCP2MODE1                         00000001
CCP2MODE2                         00000002
CCP2MODE3                         00000003
CCP2OUT                           00000005
CCP2PPS                           00000EAB
CCP2PPS0                          00000000
CCP2PPS1                          00000001
CCP2PPS2                          00000002
CCP2PPS3                          00000003
CCP2PPS4                          00000004
CCPR1                             00000FA9
CCPR1H                            00000FAA
CCPR1L                            00000FA9
CCPR2                             00000FA5
CCPR2H                            00000FA6
CCPR2L                            00000FA5
CCPTMRS                           00000FAD
CDAFVR0                           00000002
CDAFVR1                           00000003
CDIV0                             00000000
CDIV1                             00000001
CDIV2                             00000002
CDIV3                             00000003
CHPOL                             00000005
CHS0                              00000000
CHS1                              00000001
CHS2                              00000002
CHSYNC                            00000004
CK1PPS                            00000EB1
CK2PPS                            00000E89
MPASM 5.87        SERIALINTERRUPTCOUNTER.ASM   1-27-2021  12:24:50         PAGE 14


SYMBOL TABLE
  LABEL                             VALUE 

CK2PPS0                           00000000
CK2PPS1                           00000001
CK2PPS2                           00000002
CK2PPS3                           00000003
CK2PPS4                           00000004
CKE                               00000006
CKP                               00000004
CKPOL                             00000006
CKPPS                             00000EB1
CKPS0                             00000004
CKPS1                             00000005
CKPS2                             00000006
CKSYNC                            00000005
CLC1CON                           00000E27
CLC1GLS0                          00000E2D
CLC1GLS1                          00000E2E
CLC1GLS2                          00000E2F
CLC1GLS3                          00000E30
CLC1IE                            00000004
CLC1IF                            00000004
CLC1IP                            00000004
CLC1MD                            00000004
CLC1POL                           00000E28
CLC1SEL0                          00000E29
CLC1SEL1                          00000E2A
CLC1SEL2                          00000E2B
CLC1SEL3                          00000E2C
CLC2CON                           00000E31
CLC2GLS0                          00000E37
CLC2GLS1                          00000E38
CLC2GLS2                          00000E39
CLC2GLS3                          00000E3A
CLC2IE                            00000005
CLC2IF                            00000005
CLC2IP                            00000005
CLC2MD                            00000005
CLC2POL                           00000E32
CLC2SEL0                          00000E33
CLC2SEL1                          00000E34
CLC2SEL2                          00000E35
CLC2SEL3                          00000E36
CLC3CON                           00000E3B
CLC3GLS0                          00000E41
CLC3GLS1                          00000E42
CLC3GLS2                          00000E43
CLC3GLS3                          00000E44
CLC3IE                            00000006
CLC3IF                            00000006
CLC3IP                            00000006
CLC3MD                            00000006
CLC3POL                           00000E3C
CLC3SEL0                          00000E3D
CLC3SEL1                          00000E3E
MPASM 5.87        SERIALINTERRUPTCOUNTER.ASM   1-27-2021  12:24:50         PAGE 15


SYMBOL TABLE
  LABEL                             VALUE 

CLC3SEL2                          00000E3F
CLC3SEL3                          00000E40
CLC4CON                           00000E45
CLC4GLS0                          00000E4B
CLC4GLS1                          00000E4C
CLC4GLS2                          00000E4D
CLC4GLS3                          00000E4E
CLC4IE                            00000007
CLC4IF                            00000007
CLC4IP                            00000007
CLC4MD                            00000007
CLC4POL                           00000E46
CLC4SEL0                          00000E47
CLC4SEL1                          00000E48
CLC4SEL2                          00000E49
CLC4SEL3                          00000E4A
CLC5CON                           00000E4F
CLC5GLS0                          00000E55
CLC5GLS1                          00000E56
CLC5GLS2                          00000E57
CLC5GLS3                          00000E58
CLC5IE                            00000004
CLC5IF                            00000004
CLC5IP                            00000004
CLC5MD                            00000004
CLC5POL                           00000E50
CLC5SEL0                          00000E51
CLC5SEL1                          00000E52
CLC5SEL2                          00000E53
CLC5SEL3                          00000E54
CLC6CON                           00000E59
CLC6GLS0                          00000E5F
CLC6GLS1                          00000E60
CLC6GLS2                          00000E61
CLC6GLS3                          00000E62
CLC6IE                            00000005
CLC6IF                            00000005
CLC6IP                            00000005
CLC6MD                            00000005
CLC6POL                           00000E5A
CLC6SEL0                          00000E5B
CLC6SEL1                          00000E5C
CLC6SEL2                          00000E5D
CLC6SEL3                          00000E5E
CLC7CON                           00000E63
CLC7GLS0                          00000E69
CLC7GLS1                          00000E6A
CLC7GLS2                          00000E6B
CLC7GLS3                          00000E6C
CLC7IE                            00000006
CLC7IF                            00000006
CLC7IP                            00000006
CLC7MD                            00000006
MPASM 5.87        SERIALINTERRUPTCOUNTER.ASM   1-27-2021  12:24:50         PAGE 16


SYMBOL TABLE
  LABEL                             VALUE 

CLC7POL                           00000E64
CLC7SEL0                          00000E65
CLC7SEL1                          00000E66
CLC7SEL2                          00000E67
CLC7SEL3                          00000E68
CLC8CON                           00000E6D
CLC8GLS0                          00000E73
CLC8GLS1                          00000E74
CLC8GLS2                          00000E75
CLC8GLS3                          00000E76
CLC8IE                            00000007
CLC8IF                            00000007
CLC8IP                            00000007
CLC8MD                            00000007
CLC8POL                           00000E6E
CLC8SEL0                          00000E6F
CLC8SEL1                          00000E70
CLC8SEL2                          00000E71
CLC8SEL3                          00000E72
CLCDATA                           00000E77
CLCIN0PPS                         00000E1F
CLCIN0PPS0                        00000000
CLCIN0PPS1                        00000001
CLCIN0PPS2                        00000002
CLCIN0PPS3                        00000003
CLCIN0PPS4                        00000004
CLCIN1PPS                         00000E20
CLCIN1PPS0                        00000000
CLCIN1PPS1                        00000001
CLCIN1PPS2                        00000002
CLCIN1PPS3                        00000003
CLCIN1PPS4                        00000004
CLCIN2PPS                         00000E21
CLCIN2PPS0                        00000000
CLCIN2PPS1                        00000001
CLCIN2PPS2                        00000002
CLCIN2PPS3                        00000003
CLCIN2PPS4                        00000004
CLCIN3PPS                         00000E22
CLCIN3PPS0                        00000000
CLCIN3PPS1                        00000001
CLCIN3PPS2                        00000002
CLCIN3PPS3                        00000003
CLCIN3PPS4                        00000004
CLCIN4PPS                         00000E23
CLCIN4PPS0                        00000000
CLCIN4PPS1                        00000001
CLCIN4PPS2                        00000002
CLCIN4PPS3                        00000003
CLCIN4PPS4                        00000004
CLCIN5PPS                         00000E24
CLCIN5PPS0                        00000000
CLCIN5PPS1                        00000001
MPASM 5.87        SERIALINTERRUPTCOUNTER.ASM   1-27-2021  12:24:50         PAGE 17


SYMBOL TABLE
  LABEL                             VALUE 

CLCIN5PPS2                        00000002
CLCIN5PPS3                        00000003
CLCIN5PPS4                        00000004
CLCIN6PPS                         00000E25
CLCIN6PPS0                        00000000
CLCIN6PPS1                        00000001
CLCIN6PPS2                        00000002
CLCIN6PPS3                        00000003
CLCIN6PPS4                        00000004
CLCIN7PPS                         00000E26
CLCIN7PPS0                        00000000
CLCIN7PPS1                        00000001
CLCIN7PPS2                        00000002
CLCIN7PPS3                        00000003
CLCIN7PPS4                        00000004
CLK0                              00000000
CLK1                              00000001
CLK2                              00000002
CLKRCLK                           00000F3A
CLKRCLK0                          00000000
CLKRCLK1                          00000001
CLKRCLK2                          00000002
CLKRCON                           00000F39
CLKRDC0                           00000003
CLKRDC1                           00000004
CLKRDIV0                          00000000
CLKRDIV1                          00000001
CLKRDIV2                          00000002
CLKREN                            00000007
CLKRMD                            00000001
CLPOL                             00000001
CLS0                              00000000
CLS1                              00000001
CLS2                              00000002
CLSYNC                            00000000
CM1CON0                           00000F34
CM1CON1                           00000F35
CM1NCH                            00000F36
CM1PCH                            00000F37
CM2CON0                           00000F30
CM2CON1                           00000F31
CM2NCH                            00000F32
CM2PCH                            00000F33
CMOUT                             00000F38
CMP1MD                            00000001
CMP2MD                            00000002
COSC0                             00000004
COSC1                             00000005
COSC2                             00000006
CPUDOZE                           00000ED2
CRCACC                            00000F71
CRCACCH                           00000F72
CRCACCL                           00000F71
MPASM 5.87        SERIALINTERRUPTCOUNTER.ASM   1-27-2021  12:24:50         PAGE 18


SYMBOL TABLE
  LABEL                             VALUE 

CRCCON0                           00000F77
CRCCON1                           00000F78
CRCDATA                           00000F6F
CRCDATH                           00000F70
CRCDATL                           00000F6F
CRCEN                             00000007
CRCGO                             00000006
CRCIE                             00000006
CRCIF                             00000006
CRCIP                             00000006
CRCMD                             00000004
CRCSHFT                           00000F73
CRCSHIFTH                         00000F74
CRCSHIFTL                         00000F73
CRCXOR                            00000F75
CRCXORH                           00000F76
CRCXORL                           00000F75
CREN                              00000004
CS                                00000000
CS0                               00000000
CS1                               00000001
CS2                               00000002
CS3                               00000003
CSRC                              00000007
CSWHOLD                           00000007
CSWIE                             00000006
CSWIF                             00000006
CSWIP                             00000006
CTS0                              00000000
CTS1                              00000001
CWG1AS0                           00000F41
CWG1AS1                           00000F42
CWG1CLK                           00000F3B
CWG1CLKCON                        00000F3B
CWG1CON0                          00000F3F
CWG1CON1                          00000F40
CWG1CS                            00000000
CWG1DBF                           00000F3E
CWG1DBF0                          00000000
CWG1DBF1                          00000001
CWG1DBF2                          00000002
CWG1DBF3                          00000003
CWG1DBF4                          00000004
CWG1DBF5                          00000005
CWG1DBR                           00000F3D
CWG1DBR0                          00000000
CWG1DBR1                          00000001
CWG1DBR2                          00000002
CWG1DBR3                          00000003
CWG1DBR4                          00000004
CWG1DBR5                          00000005
CWG1EN                            00000007
CWG1IE                            00000000
MPASM 5.87        SERIALINTERRUPTCOUNTER.ASM   1-27-2021  12:24:50         PAGE 19


SYMBOL TABLE
  LABEL                             VALUE 

CWG1IF                            00000000
CWG1IN                            00000005
CWG1INPPS                         00000EAC
CWG1INPPS0                        00000000
CWG1INPPS1                        00000001
CWG1INPPS2                        00000002
CWG1INPPS3                        00000003
CWG1INPPS4                        00000004
CWG1IP                            00000000
CWG1ISM                           00000F3C
CWG1ISM0                          00000000
CWG1ISM1                          00000001
CWG1ISM2                          00000002
CWG1ISM3                          00000003
CWG1LD                            00000006
CWG1LSAC0                         00000002
CWG1LSAC1                         00000003
CWG1LSBD0                         00000004
CWG1LSBD1                         00000005
CWG1MD                            00000000
CWG1MODE0                         00000000
CWG1MODE1                         00000001
CWG1MODE2                         00000002
CWG1OVRA                          00000004
CWG1OVRB                          00000005
CWG1OVRC                          00000006
CWG1OVRD                          00000007
CWG1POLA                          00000000
CWG1POLB                          00000001
CWG1POLC                          00000002
CWG1POLD                          00000003
CWG1PPS                           00000EAC
CWG1REN                           00000006
CWG1SHUTDOWN                      00000007
CWG1STR                           00000F43
CWG1STRA                          00000000
CWG1STRB                          00000001
CWG1STRC                          00000002
CWG1STRD                          00000003
CWGIE                             00000000
CWGIF                             00000000
CWGINPPS                          00000EAC
CWGINPPS0                         00000000
CWGINPPS1                         00000001
CWGINPPS2                         00000002
CWGINPPS3                         00000003
CWGINPPS4                         00000004
CWGIP                             00000000
CWGMD                             00000000
CWGPPS                            00000EAC
D1S0                              00000000
D1S1                              00000001
D1S2                              00000002
MPASM 5.87        SERIALINTERRUPTCOUNTER.ASM   1-27-2021  12:24:50         PAGE 20


SYMBOL TABLE
  LABEL                             VALUE 

D1S3                              00000003
D1S4                              00000004
D1S5                              00000005
D1S6                              00000006
D1S7                              00000007
D2S0                              00000000
D2S1                              00000001
D2S2                              00000002
D2S3                              00000003
D2S4                              00000004
D2S5                              00000005
D2S6                              00000006
D2S7                              00000007
D3S0                              00000000
D3S1                              00000001
D3S2                              00000002
D3S3                              00000003
D3S4                              00000004
D3S5                              00000005
D3S6                              00000006
D3S7                              00000007
D4S0                              00000000
D4S1                              00000001
D4S2                              00000002
D4S3                              00000003
D4S4                              00000004
D4S5                              00000005
D4S6                              00000006
D4S7                              00000007
DABORT                            00000004
DAC1CON0                          00000F2E
DAC1CON1                          00000F2F
DAC1EN                            00000007
DAC1NSS                           00000000
DAC1OE1                           00000005
DAC1OE2                           00000004
DAC1PSS0                          00000002
DAC1PSS1                          00000003
DAC1R0                            00000000
DAC1R1                            00000001
DAC1R2                            00000002
DAC1R3                            00000003
DAC1R4                            00000004
DACMD                             00000006
DATA0                             00000000
DATA1                             00000001
DATA10                            00000002
DATA11                            00000003
DATA12                            00000004
DATA13                            00000005
DATA14                            00000006
DATA15                            00000007
DATA2                             00000002
MPASM 5.87        SERIALINTERRUPTCOUNTER.ASM   1-27-2021  12:24:50         PAGE 21


SYMBOL TABLE
  LABEL                             VALUE 

DATA3                             00000003
DATA4                             00000004
DATA5                             00000005
DATA6                             00000006
DATA7                             00000007
DATA8                             00000000
DATA9                             00000001
DATA_ADDRESS                      00000005
DBF0                              00000000
DBF1                              00000001
DBF2                              00000002
DBF3                              00000003
DBF4                              00000004
DBF5                              00000005
DBR0                              00000000
DBR1                              00000001
DBR2                              00000002
DBR3                              00000003
DBR4                              00000004
DBR5                              00000005
DC                                00000001
DC0_CLKRCON                       00000003
DC0_PWM3DCL                       00000006
DC0_PWM4DCL                       00000006
DC1_CLKRCON                       00000004
DC1_PWM3DCL                       00000007
DC1_PWM4DCL                       00000007
DC2                               00000000
DC3                               00000001
DC4                               00000002
DC5                               00000003
DC6                               00000004
DC7                               00000005
DC8                               00000006
DC9                               00000007
DDRA                              TRISA
DDRB                              TRISB
DDRC                              TRISC
DDRD                              TRISD
DDRE                              TRISE
DHEN                              00000000
DIV0                              00000000
DIV1                              00000001
DIV2                              00000002
DLEN0                             00000004
DLEN1                             00000005
DLEN2                             00000006
DLEN3                             00000007
DOE                               00000004
DONE                              00000000
DOZE0                             00000000
DOZE1                             00000001
DOZE2                             00000002
MPASM 5.87        SERIALINTERRUPTCOUNTER.ASM   1-27-2021  12:24:50         PAGE 22


SYMBOL TABLE
  LABEL                             VALUE 

DOZEN                             00000006
DSMMD                             00000000
D_A                               00000005
D_NOT_A                           00000005
EN                                00000007
EXTOEN                            00000007
EXTOR                             00000007
FAST                              00000001
FERR                              00000002
FMT                               00000004
FRQ0                              00000000
FRQ1                              00000001
FRQ2                              00000002
FRQ3                              00000003
FSR0                              00000000
FSR0H                             00000FEA
FSR0L                             00000FE9
FSR1                              00000001
FSR1H                             00000FE2
FSR1L                             00000FE1
FSR2                              00000002
FSR2H                             00000FDA
FSR2L                             00000FD9
FULL                              00000000
FVRCON                            00000F2C
FVREN                             00000007
FVRMD                             00000006
FVRRDY                            00000006
G1D1N                             00000000
G1D1T                             00000001
G1D2N                             00000002
G1D2T                             00000003
G1D3N                             00000004
G1D3T                             00000005
G1D4N                             00000006
G1D4T                             00000007
G1EN                              00000007
G1POL                             00000000
G2D1N                             00000000
G2D1T                             00000001
G2D2N                             00000002
G2D2T                             00000003
G2D3N                             00000004
G2D3T                             00000005
G2D4N                             00000006
G2D4T                             00000007
G2POL                             00000001
G3D1N                             00000000
G3D1T                             00000001
G3D2N                             00000002
G3D2T                             00000003
G3D3N                             00000004
G3D3T                             00000005
MPASM 5.87        SERIALINTERRUPTCOUNTER.ASM   1-27-2021  12:24:50         PAGE 23


SYMBOL TABLE
  LABEL                             VALUE 

G3D4N                             00000006
G3D4T                             00000007
G3POL                             00000002
G4D1N                             00000000
G4D1T                             00000001
G4D2N                             00000002
G4D2T                             00000003
G4D3N                             00000004
G4D3T                             00000005
G4D4N                             00000006
G4D4T                             00000007
G4POL                             00000003
GCEN                              00000007
GE                                00000007
GGO_NOT_DONE                      00000003
GIE                               00000007
GIEH                              00000007
GIEL                              00000006
GIE_GIEH                          00000007
GO_ADCON0                         00000000
GO_NOT_DONE                       00000000
GO_SCANCON0                       00000006
GPOL                              00000006
GSPM                              00000004
GSS0                              00000000
GSS1                              00000001
GSS2                              00000002
GSS3                              00000003
GTM                               00000005
GVAL                              00000002
HADR0                             00000000
HADR1                             00000001
HADR10                            00000002
HADR11                            00000003
HADR12                            00000004
HADR13                            00000005
HADR14                            00000006
HADR15                            00000007
HADR16                            00000000
HADR17                            00000001
HADR18                            00000002
HADR19                            00000003
HADR2                             00000002
HADR20                            00000004
HADR21                            00000005
HADR3                             00000003
HADR4                             00000004
HADR5                             00000005
HADR6                             00000006
HADR7                             00000007
HADR8                             00000000
HADR9                             00000001
HFOEN                             00000006
MPASM 5.87        SERIALINTERRUPTCOUNTER.ASM   1-27-2021  12:24:50         PAGE 24


SYMBOL TABLE
  LABEL                             VALUE 

HFOR                              00000006
HLVDCON0                          00000F2A
HLVDCON1                          00000F2B
HLVDEN                            00000007
HLVDIE                            00000007
HLVDIF                            00000007
HLVDINTH                          00000001
HLVDINTL                          00000000
HLVDIP                            00000007
HLVDMD                            00000005
HLVDOUT                           00000005
HLVDRDY                           00000004
HLVDSEL0                          00000000
HLVDSEL1                          00000001
HLVDSEL2                          00000002
HLVDSEL3                          00000003
HYS                               00000001
I2C_DAT                           00000005
I2C_READ                          00000002
I2C_START                         00000003
I2C_STOP                          00000004
IDLEN                             00000007
IN                                00000005
INDF0                             00000FEF
INDF1                             00000FE7
INDF2                             00000FDF
INLVLA                            00000F08
INLVLA0                           00000000
INLVLA1                           00000001
INLVLA2                           00000002
INLVLA3                           00000003
INLVLA4                           00000004
INLVLA5                           00000005
INLVLA6                           00000006
INLVLA7                           00000007
INLVLB                            00000F10
INLVLB0                           00000000
INLVLB1                           00000001
INLVLB2                           00000002
INLVLB3                           00000003
INLVLB4                           00000004
INLVLB5                           00000005
INLVLB6                           00000006
INLVLB7                           00000007
INLVLC                            00000F18
INLVLC0                           00000000
INLVLC1                           00000001
INLVLC2                           00000002
INLVLC3                           00000003
INLVLC4                           00000004
INLVLC5                           00000005
INLVLC6                           00000006
INLVLC7                           00000007
MPASM 5.87        SERIALINTERRUPTCOUNTER.ASM   1-27-2021  12:24:50         PAGE 25


SYMBOL TABLE
  LABEL                             VALUE 

INLVLD                            00000F1D
INLVLD0                           00000000
INLVLD1                           00000001
INLVLD2                           00000002
INLVLD3                           00000003
INLVLD4                           00000004
INLVLD5                           00000005
INLVLD6                           00000006
INLVLD7                           00000007
INLVLE                            00000F25
INLVLE0                           00000000
INLVLE1                           00000001
INLVLE2                           00000002
INLVLE3                           00000003
INT0EDG                           00000000
INT0IE                            00000000
INT0IF                            00000000
INT0IP                            00000000
INT0PPS                           00000E9C
INT0PPS0                          00000000
INT0PPS1                          00000001
INT0PPS2                          00000002
INT0PPS3                          00000003
INT1EDG                           00000001
INT1IE                            00000001
INT1IF                            00000001
INT1IP                            00000001
INT1PPS                           00000E9D
INT1PPS0                          00000000
INT1PPS1                          00000001
INT1PPS2                          00000002
INT1PPS3                          00000003
INT2EDG                           00000002
INT2IE                            00000002
INT2IF                            00000002
INT2IP                            00000002
INT2PPS                           00000E9E
INT2PPS0                          00000000
INT2PPS1                          00000001
INT2PPS2                          00000002
INT2PPS3                          00000003
INTCON                            00000FF2
INTH                              00000001
INTL                              00000000
INTM                              00000003
INTN_CLC1CON                      00000003
INTN_CLC2CON                      00000003
INTN_CLC3CON                      00000003
INTN_CLC4CON                      00000003
INTN_CLC5CON                      00000003
INTN_CLC6CON                      00000003
INTN_CLC7CON                      00000003
INTN_CLC8CON                      00000003
MPASM 5.87        SERIALINTERRUPTCOUNTER.ASM   1-27-2021  12:24:50         PAGE 26


SYMBOL TABLE
  LABEL                             VALUE 

INTN_CM1CON1                      00000000
INTN_CM2CON1                      00000000
INTN_ZCDCON                       00000000
INTP_CLC1CON                      00000004
INTP_CLC2CON                      00000004
INTP_CLC3CON                      00000004
INTP_CLC4CON                      00000004
INTP_CLC5CON                      00000004
INTP_CLC6CON                      00000004
INTP_CLC7CON                      00000004
INTP_CLC8CON                      00000004
INTP_CM1CON1                      00000001
INTP_CM2CON1                      00000001
INTP_ZCDCON                       00000001
INVALID                           00000004
IOCAF                             00000F05
IOCAF0                            00000000
IOCAF1                            00000001
IOCAF2                            00000002
IOCAF3                            00000003
IOCAF4                            00000004
IOCAF5                            00000005
IOCAF6                            00000006
IOCAF7                            00000007
IOCAN                             00000F06
IOCAN0                            00000000
IOCAN1                            00000001
IOCAN2                            00000002
IOCAN3                            00000003
IOCAN4                            00000004
IOCAN5                            00000005
IOCAN6                            00000006
IOCAN7                            00000007
IOCAP                             00000F07
IOCAP0                            00000000
IOCAP1                            00000001
IOCAP2                            00000002
IOCAP3                            00000003
IOCAP4                            00000004
IOCAP5                            00000005
IOCAP6                            00000006
IOCAP7                            00000007
IOCBF                             00000F0D
IOCBF0                            00000000
IOCBF1                            00000001
IOCBF2                            00000002
IOCBF3                            00000003
IOCBF4                            00000004
IOCBF5                            00000005
IOCBF6                            00000006
IOCBF7                            00000007
IOCBN                             00000F0E
IOCBN0                            00000000
MPASM 5.87        SERIALINTERRUPTCOUNTER.ASM   1-27-2021  12:24:50         PAGE 27


SYMBOL TABLE
  LABEL                             VALUE 

IOCBN1                            00000001
IOCBN2                            00000002
IOCBN3                            00000003
IOCBN4                            00000004
IOCBN5                            00000005
IOCBN6                            00000006
IOCBN7                            00000007
IOCBP                             00000F0F
IOCBP0                            00000000
IOCBP1                            00000001
IOCBP2                            00000002
IOCBP3                            00000003
IOCBP4                            00000004
IOCBP5                            00000005
IOCBP6                            00000006
IOCBP7                            00000007
IOCCF                             00000F15
IOCCF0                            00000000
IOCCF1                            00000001
IOCCF2                            00000002
IOCCF3                            00000003
IOCCF4                            00000004
IOCCF5                            00000005
IOCCF6                            00000006
IOCCF7                            00000007
IOCCN                             00000F16
IOCCN0                            00000000
IOCCN1                            00000001
IOCCN2                            00000002
IOCCN3                            00000003
IOCCN4                            00000004
IOCCN5                            00000005
IOCCN6                            00000006
IOCCN7                            00000007
IOCCP                             00000F17
IOCCP0                            00000000
IOCCP1                            00000001
IOCCP2                            00000002
IOCCP3                            00000003
IOCCP4                            00000004
IOCCP5                            00000005
IOCCP6                            00000006
IOCCP7                            00000007
IOCEF                             00000F22
IOCEF0                            00000000
IOCEF1                            00000001
IOCEF2                            00000002
IOCEF3                            00000003
IOCEN                             00000F23
IOCEN0                            00000000
IOCEN1                            00000001
IOCEN2                            00000002
IOCEN3                            00000003
MPASM 5.87        SERIALINTERRUPTCOUNTER.ASM   1-27-2021  12:24:50         PAGE 28


SYMBOL TABLE
  LABEL                             VALUE 

IOCEP                             00000F24
IOCEP0                            00000000
IOCEP1                            00000001
IOCEP2                            00000002
IOCEP3                            00000003
IOCIE                             00000004
IOCIF                             00000004
IOCIP                             00000004
IOCMD                             00000000
IPEN                              00000005
IPR0                              00000EB5
IPR1                              00000EB6
IPR2                              00000EB7
IPR3                              00000EB8
IPR4                              00000EB9
IPR5                              00000EBA
IPR6                              00000EBB
IPR7                              00000EBC
ISR                               00000058
Init                              0000000C
LADR0                             00000000
LADR1                             00000001
LADR10                            00000002
LADR11                            00000003
LADR12                            00000004
LADR13                            00000005
LADR14                            00000006
LADR15                            00000007
LADR16                            00000000
LADR17                            00000001
LADR18                            00000002
LADR19                            00000003
LADR2                             00000002
LADR20                            00000004
LADR21                            00000005
LADR3                             00000003
LADR4                             00000004
LADR5                             00000005
LADR6                             00000006
LADR7                             00000007
LADR8                             00000000
LADR9                             00000001
LATA                              00000F82
LATA0                             00000000
LATA1                             00000001
LATA2                             00000002
LATA3                             00000003
LATA4                             00000004
LATA5                             00000005
LATA6                             00000006
LATA7                             00000007
LATB                              00000F83
LATB0                             00000000
MPASM 5.87        SERIALINTERRUPTCOUNTER.ASM   1-27-2021  12:24:50         PAGE 29


SYMBOL TABLE
  LABEL                             VALUE 

LATB1                             00000001
LATB2                             00000002
LATB3                             00000003
LATB4                             00000004
LATB5                             00000005
LATB6                             00000006
LATB7                             00000007
LATC                              00000F84
LATC0                             00000000
LATC1                             00000001
LATC2                             00000002
LATC3                             00000003
LATC4                             00000004
LATC5                             00000005
LATC6                             00000006
LATC7                             00000007
LATD                              00000F85
LATD0                             00000000
LATD1                             00000001
LATD2                             00000002
LATD3                             00000003
LATD4                             00000004
LATD5                             00000005
LATD6                             00000006
LATD7                             00000007
LATE                              00000F86
LATE0                             00000000
LATE1                             00000001
LATE2                             00000002
LC1D1S0                           00000000
LC1D1S1                           00000001
LC1D1S2                           00000002
LC1D1S3                           00000003
LC1D1S4                           00000004
LC1D1S5                           00000005
LC1D1S6                           00000006
LC1D1S7                           00000007
LC1D2S0                           00000000
LC1D2S1                           00000001
LC1D2S2                           00000002
LC1D2S3                           00000003
LC1D2S4                           00000004
LC1D2S5                           00000005
LC1D2S6                           00000006
LC1D2S7                           00000007
LC1D3S0                           00000000
LC1D3S1                           00000001
LC1D3S2                           00000002
LC1D3S3                           00000003
LC1D3S4                           00000004
LC1D3S5                           00000005
LC1D3S6                           00000006
LC1D3S7                           00000007
MPASM 5.87        SERIALINTERRUPTCOUNTER.ASM   1-27-2021  12:24:50         PAGE 30


SYMBOL TABLE
  LABEL                             VALUE 

LC1D4S0                           00000000
LC1D4S1                           00000001
LC1D4S2                           00000002
LC1D4S3                           00000003
LC1D4S4                           00000004
LC1D4S5                           00000005
LC1D4S6                           00000006
LC1D4S7                           00000007
LC1EN                             00000007
LC1G1D1N                          00000000
LC1G1D1T                          00000001
LC1G1D2N                          00000002
LC1G1D2T                          00000003
LC1G1D3N                          00000004
LC1G1D3T                          00000005
LC1G1D4N                          00000006
LC1G1D4T                          00000007
LC1G1POL                          00000000
LC1G2D1N                          00000000
LC1G2D1T                          00000001
LC1G2D2N                          00000002
LC1G2D2T                          00000003
LC1G2D3N                          00000004
LC1G2D3T                          00000005
LC1G2D4N                          00000006
LC1G2D4T                          00000007
LC1G2POL                          00000001
LC1G3D1N                          00000000
LC1G3D1T                          00000001
LC1G3D2N                          00000002
LC1G3D2T                          00000003
LC1G3D3N                          00000004
LC1G3D3T                          00000005
LC1G3D4N                          00000006
LC1G3D4T                          00000007
LC1G3POL                          00000002
LC1G4D1N                          00000000
LC1G4D1T                          00000001
LC1G4D2N                          00000002
LC1G4D2T                          00000003
LC1G4D3N                          00000004
LC1G4D3T                          00000005
LC1G4D4N                          00000006
LC1G4D4T                          00000007
LC1G4POL                          00000003
LC1INTN                           00000003
LC1INTP                           00000004
LC1MODE0                          00000000
LC1MODE1                          00000001
LC1MODE2                          00000002
LC1OUT                            00000005
LC1POL                            00000007
LC2D1S0                           00000000
MPASM 5.87        SERIALINTERRUPTCOUNTER.ASM   1-27-2021  12:24:50         PAGE 31


SYMBOL TABLE
  LABEL                             VALUE 

LC2D1S1                           00000001
LC2D1S2                           00000002
LC2D1S3                           00000003
LC2D1S4                           00000004
LC2D1S5                           00000005
LC2D1S6                           00000006
LC2D1S7                           00000007
LC2D2S0                           00000000
LC2D2S1                           00000001
LC2D2S2                           00000002
LC2D2S3                           00000003
LC2D2S4                           00000004
LC2D2S5                           00000005
LC2D2S6                           00000006
LC2D2S7                           00000007
LC2D3S0                           00000000
LC2D3S1                           00000001
LC2D3S2                           00000002
LC2D3S3                           00000003
LC2D3S4                           00000004
LC2D3S5                           00000005
LC2D3S6                           00000006
LC2D3S7                           00000007
LC2D4S0                           00000000
LC2D4S1                           00000001
LC2D4S2                           00000002
LC2D4S3                           00000003
LC2D4S4                           00000004
LC2D4S5                           00000005
LC2D4S6                           00000006
LC2D4S7                           00000007
LC2EN                             00000007
LC2G1D1N                          00000000
LC2G1D1T                          00000001
LC2G1D2N                          00000002
LC2G1D2T                          00000003
LC2G1D3N                          00000004
LC2G1D3T                          00000005
LC2G1D4N                          00000006
LC2G1D4T                          00000007
LC2G1POL                          00000000
LC2G2D1N                          00000000
LC2G2D1T                          00000001
LC2G2D2N                          00000002
LC2G2D2T                          00000003
LC2G2D3N                          00000004
LC2G2D3T                          00000005
LC2G2D4N                          00000006
LC2G2D4T                          00000007
LC2G2POL                          00000001
LC2G3D1N                          00000000
LC2G3D1T                          00000001
LC2G3D2N                          00000002
MPASM 5.87        SERIALINTERRUPTCOUNTER.ASM   1-27-2021  12:24:50         PAGE 32


SYMBOL TABLE
  LABEL                             VALUE 

LC2G3D2T                          00000003
LC2G3D3N                          00000004
LC2G3D3T                          00000005
LC2G3D4N                          00000006
LC2G3D4T                          00000007
LC2G3POL                          00000002
LC2G4D1N                          00000000
LC2G4D1T                          00000001
LC2G4D2N                          00000002
LC2G4D2T                          00000003
LC2G4D3N                          00000004
LC2G4D3T                          00000005
LC2G4D4N                          00000006
LC2G4D4T                          00000007
LC2G4POL                          00000003
LC2INTN                           00000003
LC2INTP                           00000004
LC2MODE0                          00000000
LC2MODE1                          00000001
LC2MODE2                          00000002
LC2OUT                            00000005
LC2POL                            00000007
LC3D1S0                           00000000
LC3D1S1                           00000001
LC3D1S2                           00000002
LC3D1S3                           00000003
LC3D1S4                           00000004
LC3D1S5                           00000005
LC3D1S6                           00000006
LC3D1S7                           00000007
LC3D2S0                           00000000
LC3D2S1                           00000001
LC3D2S2                           00000002
LC3D2S3                           00000003
LC3D2S4                           00000004
LC3D2S5                           00000005
LC3D2S6                           00000006
LC3D2S7                           00000007
LC3D3S0                           00000000
LC3D3S1                           00000001
LC3D3S2                           00000002
LC3D3S3                           00000003
LC3D3S4                           00000004
LC3D3S5                           00000005
LC3D3S6                           00000006
LC3D3S7                           00000007
LC3D4S0                           00000000
LC3D4S1                           00000001
LC3D4S2                           00000002
LC3D4S3                           00000003
LC3D4S4                           00000004
LC3D4S5                           00000005
LC3D4S6                           00000006
MPASM 5.87        SERIALINTERRUPTCOUNTER.ASM   1-27-2021  12:24:50         PAGE 33


SYMBOL TABLE
  LABEL                             VALUE 

LC3D4S7                           00000007
LC3EN                             00000007
LC3G1D1N                          00000000
LC3G1D1T                          00000001
LC3G1D2N                          00000002
LC3G1D2T                          00000003
LC3G1D3N                          00000004
LC3G1D3T                          00000005
LC3G1D4N                          00000006
LC3G1D4T                          00000007
LC3G1POL                          00000000
LC3G2D1N                          00000000
LC3G2D1T                          00000001
LC3G2D2N                          00000002
LC3G2D2T                          00000003
LC3G2D3N                          00000004
LC3G2D3T                          00000005
LC3G2D4N                          00000006
LC3G2D4T                          00000007
LC3G2POL                          00000001
LC3G3D1N                          00000000
LC3G3D1T                          00000001
LC3G3D2N                          00000002
LC3G3D2T                          00000003
LC3G3D3N                          00000004
LC3G3D3T                          00000005
LC3G3D4N                          00000006
LC3G3D4T                          00000007
LC3G3POL                          00000002
LC3G4D1N                          00000000
LC3G4D1T                          00000001
LC3G4D2N                          00000002
LC3G4D2T                          00000003
LC3G4D3N                          00000004
LC3G4D3T                          00000005
LC3G4D4N                          00000006
LC3G4D4T                          00000007
LC3G4POL                          00000003
LC3INTN                           00000003
LC3INTP                           00000004
LC3MODE0                          00000000
LC3MODE1                          00000001
LC3MODE2                          00000002
LC3OUT                            00000005
LC3POL                            00000007
LC4D1S0                           00000000
LC4D1S1                           00000001
LC4D1S2                           00000002
LC4D1S3                           00000003
LC4D1S4                           00000004
LC4D1S5                           00000005
LC4D1S6                           00000006
LC4D1S7                           00000007
MPASM 5.87        SERIALINTERRUPTCOUNTER.ASM   1-27-2021  12:24:50         PAGE 34


SYMBOL TABLE
  LABEL                             VALUE 

LC4D2S0                           00000000
LC4D2S1                           00000001
LC4D2S2                           00000002
LC4D2S3                           00000003
LC4D2S4                           00000004
LC4D2S5                           00000005
LC4D2S6                           00000006
LC4D2S7                           00000007
LC4D3S0                           00000000
LC4D3S1                           00000001
LC4D3S2                           00000002
LC4D3S3                           00000003
LC4D3S4                           00000004
LC4D3S5                           00000005
LC4D3S6                           00000006
LC4D3S7                           00000007
LC4D4S0                           00000000
LC4D4S1                           00000001
LC4D4S2                           00000002
LC4D4S3                           00000003
LC4D4S4                           00000004
LC4D4S5                           00000005
LC4D4S6                           00000006
LC4D4S7                           00000007
LC4EN                             00000007
LC4G1D1N                          00000000
LC4G1D1T                          00000001
LC4G1D2N                          00000002
LC4G1D2T                          00000003
LC4G1D3N                          00000004
LC4G1D3T                          00000005
LC4G1D4N                          00000006
LC4G1D4T                          00000007
LC4G1POL                          00000000
LC4G2D1N                          00000000
LC4G2D1T                          00000001
LC4G2D2N                          00000002
LC4G2D2T                          00000003
LC4G2D3N                          00000004
LC4G2D3T                          00000005
LC4G2D4N                          00000006
LC4G2D4T                          00000007
LC4G2POL                          00000001
LC4G3D1N                          00000000
LC4G3D1T                          00000001
LC4G3D2N                          00000002
LC4G3D2T                          00000003
LC4G3D3N                          00000004
LC4G3D3T                          00000005
LC4G3D4N                          00000006
LC4G3D4T                          00000007
LC4G3POL                          00000002
LC4G4D1N                          00000000
MPASM 5.87        SERIALINTERRUPTCOUNTER.ASM   1-27-2021  12:24:50         PAGE 35


SYMBOL TABLE
  LABEL                             VALUE 

LC4G4D1T                          00000001
LC4G4D2N                          00000002
LC4G4D2T                          00000003
LC4G4D3N                          00000004
LC4G4D3T                          00000005
LC4G4D4N                          00000006
LC4G4D4T                          00000007
LC4G4POL                          00000003
LC4INTN                           00000003
LC4INTP                           00000004
LC4MODE0                          00000000
LC4MODE1                          00000001
LC4MODE2                          00000002
LC4OUT                            00000005
LC4POL                            00000007
LC5D1S0                           00000000
LC5D1S1                           00000001
LC5D1S2                           00000002
LC5D1S3                           00000003
LC5D1S4                           00000004
LC5D1S5                           00000005
LC5D1S6                           00000006
LC5D1S7                           00000007
LC5D2S0                           00000000
LC5D2S1                           00000001
LC5D2S2                           00000002
LC5D2S3                           00000003
LC5D2S4                           00000004
LC5D2S5                           00000005
LC5D2S6                           00000006
LC5D2S7                           00000007
LC5D3S0                           00000000
LC5D3S1                           00000001
LC5D3S2                           00000002
LC5D3S3                           00000003
LC5D3S4                           00000004
LC5D3S5                           00000005
LC5D3S6                           00000006
LC5D3S7                           00000007
LC5D4S0                           00000000
LC5D4S1                           00000001
LC5D4S2                           00000002
LC5D4S3                           00000003
LC5D4S4                           00000004
LC5D4S5                           00000005
LC5D4S6                           00000006
LC5D4S7                           00000007
LC5EN                             00000007
LC5G1D1N                          00000000
LC5G1D1T                          00000001
LC5G1D2N                          00000002
LC5G1D2T                          00000003
LC5G1D3N                          00000004
MPASM 5.87        SERIALINTERRUPTCOUNTER.ASM   1-27-2021  12:24:50         PAGE 36


SYMBOL TABLE
  LABEL                             VALUE 

LC5G1D3T                          00000005
LC5G1D4N                          00000006
LC5G1D4T                          00000007
LC5G1POL                          00000000
LC5G2D1N                          00000000
LC5G2D1T                          00000001
LC5G2D2N                          00000002
LC5G2D2T                          00000003
LC5G2D3N                          00000004
LC5G2D3T                          00000005
LC5G2D4N                          00000006
LC5G2D4T                          00000007
LC5G2POL                          00000001
LC5G3D1N                          00000000
LC5G3D1T                          00000001
LC5G3D2N                          00000002
LC5G3D2T                          00000003
LC5G3D3N                          00000004
LC5G3D3T                          00000005
LC5G3D4N                          00000006
LC5G3D4T                          00000007
LC5G3POL                          00000002
LC5G4D1N                          00000000
LC5G4D1T                          00000001
LC5G4D2N                          00000002
LC5G4D2T                          00000003
LC5G4D3N                          00000004
LC5G4D3T                          00000005
LC5G4D4N                          00000006
LC5G4D4T                          00000007
LC5G4POL                          00000003
LC5INTN                           00000003
LC5INTP                           00000004
LC5MODE0                          00000000
LC5MODE1                          00000001
LC5MODE2                          00000002
LC5OUT                            00000005
LC5POL                            00000007
LC6D1S0                           00000000
LC6D1S1                           00000001
LC6D1S2                           00000002
LC6D1S3                           00000003
LC6D1S4                           00000004
LC6D1S5                           00000005
LC6D1S6                           00000006
LC6D1S7                           00000007
LC6D2S0                           00000000
LC6D2S1                           00000001
LC6D2S2                           00000002
LC6D2S3                           00000003
LC6D2S4                           00000004
LC6D2S5                           00000005
LC6D2S6                           00000006
MPASM 5.87        SERIALINTERRUPTCOUNTER.ASM   1-27-2021  12:24:50         PAGE 37


SYMBOL TABLE
  LABEL                             VALUE 

LC6D2S7                           00000007
LC6D3S0                           00000000
LC6D3S1                           00000001
LC6D3S2                           00000002
LC6D3S3                           00000003
LC6D3S4                           00000004
LC6D3S5                           00000005
LC6D3S6                           00000006
LC6D3S7                           00000007
LC6D4S0                           00000000
LC6D4S1                           00000001
LC6D4S2                           00000002
LC6D4S3                           00000003
LC6D4S4                           00000004
LC6D4S5                           00000005
LC6D4S6                           00000006
LC6D4S7                           00000007
LC6EN                             00000007
LC6G1D1N                          00000000
LC6G1D1T                          00000001
LC6G1D2N                          00000002
LC6G1D2T                          00000003
LC6G1D3N                          00000004
LC6G1D3T                          00000005
LC6G1D4N                          00000006
LC6G1D4T                          00000007
LC6G1POL                          00000000
LC6G2D1N                          00000000
LC6G2D1T                          00000001
LC6G2D2N                          00000002
LC6G2D2T                          00000003
LC6G2D3N                          00000004
LC6G2D3T                          00000005
LC6G2D4N                          00000006
LC6G2D4T                          00000007
LC6G2POL                          00000001
LC6G3D1N                          00000000
LC6G3D1T                          00000001
LC6G3D2N                          00000002
LC6G3D2T                          00000003
LC6G3D3N                          00000004
LC6G3D3T                          00000005
LC6G3D4N                          00000006
LC6G3D4T                          00000007
LC6G3POL                          00000002
LC6G4D1N                          00000000
LC6G4D1T                          00000001
LC6G4D2N                          00000002
LC6G4D2T                          00000003
LC6G4D3N                          00000004
LC6G4D3T                          00000005
LC6G4D4N                          00000006
LC6G4D4T                          00000007
MPASM 5.87        SERIALINTERRUPTCOUNTER.ASM   1-27-2021  12:24:50         PAGE 38


SYMBOL TABLE
  LABEL                             VALUE 

LC6G4POL                          00000003
LC6INTN                           00000003
LC6INTP                           00000004
LC6MODE0                          00000000
LC6MODE1                          00000001
LC6MODE2                          00000002
LC6OUT                            00000005
LC6POL                            00000007
LC7D1S0                           00000000
LC7D1S1                           00000001
LC7D1S2                           00000002
LC7D1S3                           00000003
LC7D1S4                           00000004
LC7D1S5                           00000005
LC7D1S6                           00000006
LC7D1S7                           00000007
LC7D2S0                           00000000
LC7D2S1                           00000001
LC7D2S2                           00000002
LC7D2S3                           00000003
LC7D2S4                           00000004
LC7D2S5                           00000005
LC7D2S6                           00000006
LC7D2S7                           00000007
LC7D3S0                           00000000
LC7D3S1                           00000001
LC7D3S2                           00000002
LC7D3S3                           00000003
LC7D3S4                           00000004
LC7D3S5                           00000005
LC7D3S6                           00000006
LC7D3S7                           00000007
LC7D4S0                           00000000
LC7D4S1                           00000001
LC7D4S2                           00000002
LC7D4S3                           00000003
LC7D4S4                           00000004
LC7D4S5                           00000005
LC7D4S6                           00000006
LC7D4S7                           00000007
LC7EN                             00000007
LC7G1D1N                          00000000
LC7G1D1T                          00000001
LC7G1D2N                          00000002
LC7G1D2T                          00000003
LC7G1D3N                          00000004
LC7G1D3T                          00000005
LC7G1D4N                          00000006
LC7G1D4T                          00000007
LC7G1POL                          00000000
LC7G2D1N                          00000000
LC7G2D1T                          00000001
LC7G2D2N                          00000002
MPASM 5.87        SERIALINTERRUPTCOUNTER.ASM   1-27-2021  12:24:50         PAGE 39


SYMBOL TABLE
  LABEL                             VALUE 

LC7G2D2T                          00000003
LC7G2D3N                          00000004
LC7G2D3T                          00000005
LC7G2D4N                          00000006
LC7G2D4T                          00000007
LC7G2POL                          00000001
LC7G3D1N                          00000000
LC7G3D1T                          00000001
LC7G3D2N                          00000002
LC7G3D2T                          00000003
LC7G3D3N                          00000004
LC7G3D3T                          00000005
LC7G3D4N                          00000006
LC7G3D4T                          00000007
LC7G3POL                          00000002
LC7G4D1N                          00000000
LC7G4D1T                          00000001
LC7G4D2N                          00000002
LC7G4D2T                          00000003
LC7G4D3N                          00000004
LC7G4D3T                          00000005
LC7G4D4N                          00000006
LC7G4D4T                          00000007
LC7G4POL                          00000003
LC7INTN                           00000003
LC7INTP                           00000004
LC7MODE0                          00000000
LC7MODE1                          00000001
LC7MODE2                          00000002
LC7OUT                            00000005
LC7POL                            00000007
LC8D1S0                           00000000
LC8D1S1                           00000001
LC8D1S2                           00000002
LC8D1S3                           00000003
LC8D1S4                           00000004
LC8D1S5                           00000005
LC8D1S6                           00000006
LC8D1S7                           00000007
LC8D2S0                           00000000
LC8D2S1                           00000001
LC8D2S2                           00000002
LC8D2S3                           00000003
LC8D2S4                           00000004
LC8D2S5                           00000005
LC8D2S6                           00000006
LC8D2S7                           00000007
LC8D3S0                           00000000
LC8D3S1                           00000001
LC8D3S2                           00000002
LC8D3S3                           00000003
LC8D3S4                           00000004
LC8D3S5                           00000005
MPASM 5.87        SERIALINTERRUPTCOUNTER.ASM   1-27-2021  12:24:50         PAGE 40


SYMBOL TABLE
  LABEL                             VALUE 

LC8D3S6                           00000006
LC8D3S7                           00000007
LC8D4S0                           00000000
LC8D4S1                           00000001
LC8D4S2                           00000002
LC8D4S3                           00000003
LC8D4S4                           00000004
LC8D4S5                           00000005
LC8D4S6                           00000006
LC8D4S7                           00000007
LC8EN                             00000007
LC8G1D1N                          00000000
LC8G1D1T                          00000001
LC8G1D2N                          00000002
LC8G1D2T                          00000003
LC8G1D3N                          00000004
LC8G1D3T                          00000005
LC8G1D4N                          00000006
LC8G1D4T                          00000007
LC8G1POL                          00000000
LC8G2D1N                          00000000
LC8G2D1T                          00000001
LC8G2D2N                          00000002
LC8G2D2T                          00000003
LC8G2D3N                          00000004
LC8G2D3T                          00000005
LC8G2D4N                          00000006
LC8G2D4T                          00000007
LC8G2POL                          00000001
LC8G3D1N                          00000000
LC8G3D1T                          00000001
LC8G3D2N                          00000002
LC8G3D2T                          00000003
LC8G3D3N                          00000004
LC8G3D3T                          00000005
LC8G3D4N                          00000006
LC8G3D4T                          00000007
LC8G3POL                          00000002
LC8G4D1N                          00000000
LC8G4D1T                          00000001
LC8G4D2N                          00000002
LC8G4D2T                          00000003
LC8G4D3N                          00000004
LC8G4D3T                          00000005
LC8G4D4N                          00000006
LC8G4D4T                          00000007
LC8G4POL                          00000003
LC8INTN                           00000003
LC8INTP                           00000004
LC8MODE0                          00000000
LC8MODE1                          00000001
LC8MODE2                          00000002
LC8OUT                            00000005
MPASM 5.87        SERIALINTERRUPTCOUNTER.ASM   1-27-2021  12:24:50         PAGE 41


SYMBOL TABLE
  LABEL                             VALUE 

LC8POL                            00000007
LD                                00000006
LFOEN                             00000004
LFOR                              00000004
LSAC0                             00000002
LSAC1                             00000003
LSBD0                             00000004
LSBD1                             00000005
MC1OUT                            00000000
MC2OUT                            00000001
MCL1OUT                           00000000
MDBIT                             00000000
MDCARH                            00000F50
MDCARHPPS                         00000EAE
MDCARHPPS0                        00000000
MDCARHPPS1                        00000001
MDCARHPPS2                        00000002
MDCARHPPS3                        00000003
MDCARHPPS4                        00000004
MDCARL                            00000F4F
MDCARLPPS                         00000EAD
MDCARLPPS0                        00000000
MDCARLPPS1                        00000001
MDCARLPPS2                        00000002
MDCARLPPS3                        00000003
MDCARLPPS4                        00000004
MDCHPOL                           00000005
MDCHS0                            00000000
MDCHS1                            00000001
MDCHS2                            00000002
MDCHSYNC                          00000004
MDCLPOL                           00000001
MDCLS0                            00000000
MDCLS1                            00000001
MDCLS2                            00000002
MDCLSYNC                          00000000
MDCON0                            00000F4C
MDCON1                            00000F4D
MDEN                              00000007
MDOPOL                            00000004
MDOUT                             00000005
MDSRC                             00000F4E
MDSRCPPS                          00000EAF
MDSRCPPS0                         00000000
MDSRCPPS1                         00000001
MDSRCPPS2                         00000002
MDSRCPPS3                         00000003
MDSRCPPS4                         00000004
MDSRCS0                           00000000
MDSRCS1                           00000001
MDSRCS2                           00000002
MDSRCS3                           00000003
MFOEN                             00000005
MPASM 5.87        SERIALINTERRUPTCOUNTER.ASM   1-27-2021  12:24:50         PAGE 42


SYMBOL TABLE
  LABEL                             VALUE 

MFOR                              00000005
MLC2OUT                           00000001
MLC3OUT                           00000002
MLC4OUT                           00000003
MLC5OUT                           00000004
MLC6OUT                           00000005
MLC7OUT                           00000006
MLC8OUT                           00000007
MODE0                             00000000
MODE1                             00000001
MODE2                             00000002
MODE3                             00000003
MODE4                             00000004
MSK0                              00000000
MSK1                              00000001
MSK2                              00000002
MSK3                              00000003
MSK4                              00000004
MSK5                              00000005
MSK6                              00000006
MSK7                              00000007
MSSP1MD                           00000004
MSSP2MD                           00000005
Mainline                          00000078
N                                 00000004
NCH0                              00000000
NCH1                              00000001
NCH2                              00000002
NDIV0                             00000000
NDIV1                             00000001
NDIV2                             00000002
NDIV3                             00000003
NOSC0                             00000004
NOSC1                             00000005
NOSC2                             00000006
NOSCR                             00000003
NOT_A                             00000005
NOT_ADDRESS                       00000005
NOT_BOR                           00000000
NOT_PD                            00000005
NOT_POR                           00000001
NOT_RCM                           00000000
NOT_RI                            00000002
NOT_RMCLR                         00000003
NOT_RVREG                         00000002
NOT_RWDT                          00000004
NOT_SYNC                          00000002
NOT_T1SYNC                        00000002
NOT_T3SYNC                        00000002
NOT_T5SYNC                        00000002
NOT_TO                            00000006
NOT_W                             00000002
NOT_WDTWV                         00000005
MPASM 5.87        SERIALINTERRUPTCOUNTER.ASM   1-27-2021  12:24:50         PAGE 43


SYMBOL TABLE
  LABEL                             VALUE 

NOT_WRITE                         00000002
NSS                               00000000
NVMADR                            00000F79
NVMADR0                           00000000
NVMADR1                           00000001
NVMADR10                          00000002
NVMADR11                          00000003
NVMADR12                          00000004
NVMADR13                          00000005
NVMADR14                          00000006
NVMADR15                          00000007
NVMADR16                          00000000
NVMADR17                          00000001
NVMADR18                          00000002
NVMADR19                          00000003
NVMADR2                           00000002
NVMADR20                          00000004
NVMADR21                          00000005
NVMADR3                           00000003
NVMADR4                           00000004
NVMADR5                           00000005
NVMADR6                           00000006
NVMADR7                           00000007
NVMADR8                           00000000
NVMADR9                           00000001
NVMADRH                           00000F7A
NVMADRL                           00000F79
NVMADRU                           00000F7B
NVMCON0                           00000F7F
NVMCON1                           00000F80
NVMCON2                           00000F81
NVMDAT                            00000F7C
NVMDAT0                           00000000
NVMDAT1                           00000001
NVMDAT10                          00000002
NVMDAT11                          00000003
NVMDAT12                          00000004
NVMDAT13                          00000005
NVMDAT14                          00000006
NVMDAT15                          00000007
NVMDAT2                           00000002
NVMDAT3                           00000003
NVMDAT4                           00000004
NVMDAT5                           00000005
NVMDAT6                           00000006
NVMDAT7                           00000007
NVMDAT8                           00000000
NVMDAT9                           00000001
NVMDATH                           00000F7D
NVMDATL                           00000F7C
NVMEN                             00000007
NVMERR                            00000004
NVMIE                             00000005
MPASM 5.87        SERIALINTERRUPTCOUNTER.ASM   1-27-2021  12:24:50         PAGE 44


SYMBOL TABLE
  LABEL                             VALUE 

NVMIF                             00000005
NVMIP                             00000005
NVMMD                             00000002
ODCA0                             00000000
ODCA1                             00000001
ODCA2                             00000002
ODCA3                             00000003
ODCA4                             00000004
ODCA5                             00000005
ODCA6                             00000006
ODCA7                             00000007
ODCB0                             00000000
ODCB1                             00000001
ODCB2                             00000002
ODCB3                             00000003
ODCB4                             00000004
ODCB5                             00000005
ODCB6                             00000006
ODCB7                             00000007
ODCC0                             00000000
ODCC1                             00000001
ODCC2                             00000002
ODCC3                             00000003
ODCC4                             00000004
ODCC5                             00000005
ODCC6                             00000006
ODCC7                             00000007
ODCD0                             00000000
ODCD1                             00000001
ODCD2                             00000002
ODCD3                             00000003
ODCD4                             00000004
ODCD5                             00000005
ODCD6                             00000006
ODCD7                             00000007
ODCE0                             00000000
ODCE1                             00000001
ODCE2                             00000002
ODCONA                            00000F0A
ODCONB                            00000F12
ODCONC                            00000F1A
ODCOND                            00000F1F
ODCONE                            00000F27
OE1                               00000005
OE2                               00000004
OERR                              00000001
ON_T1CON                          00000000
ON_T2CON                          00000007
ON_T3CON                          00000000
ON_T4CON                          00000007
ON_T5CON                          00000000
ON_T6CON                          00000007
OPOL                              00000004
MPASM 5.87        SERIALINTERRUPTCOUNTER.ASM   1-27-2021  12:24:50         PAGE 45


SYMBOL TABLE
  LABEL                             VALUE 

ORDY                              00000004
OSCCON1                           00000ED3
OSCCON2                           00000ED4
OSCCON3                           00000ED5
OSCEN                             00000ED7
OSCFIE                            00000007
OSCFIF                            00000007
OSCFIP                            00000007
OSCFREQ                           00000ED9
OSCFRQ                            00000ED9
OSCSTAT                           00000ED6
OSCSTAT1                          00000ED6
OSCTUNE                           00000ED8
OUTPS0                            00000000
OUTPS1                            00000001
OUTPS2                            00000002
OUTPS3                            00000003
OUT_CCP1CON                       00000005
OUT_CCP2CON                       00000005
OUT_CLC1CON                       00000005
OUT_CLC2CON                       00000005
OUT_CLC3CON                       00000005
OUT_CLC4CON                       00000005
OUT_CLC5CON                       00000005
OUT_CLC6CON                       00000005
OUT_CLC7CON                       00000005
OUT_CLC8CON                       00000005
OUT_CM1CON0                       00000006
OUT_CM2CON0                       00000006
OUT_HLVDCON0                      00000005
OUT_MDCON0                        00000005
OUT_PWM3CON                       00000005
OUT_PWM4CON                       00000005
OUT_ZCDCON                        00000005
OV                                00000003
OVRA                              00000004
OVRB                              00000005
OVRC                              00000006
OVRD                              00000007
P                                 00000004
P3TSEL0                           00000004
P3TSEL1                           00000005
P4TSEL0                           00000006
P4TSEL1                           00000007
PC                                00000FF9
PCH0                              00000000
PCH1                              00000001
PCH2                              00000002
PCIE                              00000006
PCL                               00000FF9
PCLATH                            00000FFA
PCLATU                            00000FFB
PCON0                             00000FD7
MPASM 5.87        SERIALINTERRUPTCOUNTER.ASM   1-27-2021  12:24:50         PAGE 46


SYMBOL TABLE
  LABEL                             VALUE 

PCON1                             00000FD6
PD                                00000005
PEIE                              00000006
PEIE_GIEL                         00000006
PEN                               00000002
PIE0                              00000EBD
PIE1                              00000EBE
PIE2                              00000EBF
PIE3                              00000EC0
PIE4                              00000EC1
PIE5                              00000EC2
PIE6                              00000EC3
PIE7                              00000EC4
PIR0                              00000EC5
PIR1                              00000EC6
PIR2                              00000EC7
PIR3                              00000EC8
PIR4                              00000EC9
PIR5                              00000ECA
PIR6                              00000ECB
PIR7                              00000ECC
PLEN0                             00000000
PLEN1                             00000001
PLEN2                             00000002
PLEN3                             00000003
PLLR                              00000000
PLUSW0                            00000FEB
PLUSW1                            00000FE3
PLUSW2                            00000FDB
PMD0                              00000EDC
PMD1                              00000EDD
PMD2                              00000EDE
PMD3                              00000EDF
PMD4                              00000EE0
PMD5                              00000EE1
PMSYS0                            00000004
PMSYS1                            00000005
POLA                              00000000
POLB                              00000001
POLC                              00000002
POLD                              00000003
POL_CLC1POL                       00000007
POL_CLC2POL                       00000007
POL_CLC3POL                       00000007
POL_CLC4POL                       00000007
POL_CLC5POL                       00000007
POL_CLC6POL                       00000007
POL_CLC7POL                       00000007
POL_CLC8POL                       00000007
POL_CM1CON0                       00000004
POL_CM2CON0                       00000004
POL_PWM3CON                       00000004
POL_PWM4CON                       00000004
MPASM 5.87        SERIALINTERRUPTCOUNTER.ASM   1-27-2021  12:24:50         PAGE 47


SYMBOL TABLE
  LABEL                             VALUE 

POL_ZCDCON                        00000004
POR                               00000001
PORT                              00000003
PORTA                             00000F8C
PORTB                             00000F8D
PORTC                             00000F8E
PORTD                             00000F8F
PORTE                             00000F90
POSTDEC0                          00000FED
POSTDEC1                          00000FE5
POSTDEC2                          00000FDD
POSTINC0                          00000FEE
POSTINC1                          00000FE6
POSTINC2                          00000FDE
PPSLOCK                           00000E9B
PPSLOCKED                         00000000
PR0                               00000FD3
PR1                               00000FCF
PR2                               00000FBB
PR3                               00000FC9
PR4                               00000FB5
PR5                               00000FC3
PR6                               00000FAF
PREINC0                           00000FEC
PREINC1                           00000FE4
PREINC2                           00000FDC
PROD                              00000FF3
PRODH                             00000FF4
PRODL                             00000FF3
PSCNT0                            00000000
PSCNT1                            00000001
PSCNT10                           00000002
PSCNT11                           00000003
PSCNT12                           00000004
PSCNT13                           00000005
PSCNT14                           00000006
PSCNT15                           00000007
PSCNT16                           00000000
PSCNT17                           00000001
PSCNT2                            00000002
PSCNT3                            00000003
PSCNT4                            00000004
PSCNT5                            00000005
PSCNT6                            00000006
PSCNT7                            00000007
PSCNT8                            00000000
PSCNT9                            00000001
PSS0                              00000002
PSS1                              00000003
PSYNC                             00000007
PWM3CON                           00000FA4
PWM3DC                            00000FA2
PWM3DC0                           00000006
MPASM 5.87        SERIALINTERRUPTCOUNTER.ASM   1-27-2021  12:24:50         PAGE 48


SYMBOL TABLE
  LABEL                             VALUE 

PWM3DC1                           00000007
PWM3DC2                           00000000
PWM3DC3                           00000001
PWM3DC4                           00000002
PWM3DC5                           00000003
PWM3DC6                           00000004
PWM3DC7                           00000005
PWM3DC8                           00000006
PWM3DC9                           00000007
PWM3DCH                           00000FA3
PWM3DCL                           00000FA2
PWM3EN                            00000007
PWM3MD                            00000002
PWM3OUT                           00000005
PWM3POL                           00000004
PWM4CON                           00000FA1
PWM4DC                            00000F9F
PWM4DC0                           00000006
PWM4DC1                           00000007
PWM4DC2                           00000000
PWM4DC3                           00000001
PWM4DC4                           00000002
PWM4DC5                           00000003
PWM4DC6                           00000004
PWM4DC7                           00000005
PWM4DC8                           00000006
PWM4DC9                           00000007
PWM4DCH                           00000FA0
PWM4DCL                           00000F9F
PWM4EN                            00000007
PWM4MD                            00000003
PWM4OUT                           00000005
PWM4POL                           00000004
PWMPW0                            00000006
PWMPW1                            00000007
PWMPW2                            00000000
PWMPW3                            00000001
PWMPW4                            00000002
PWMPW5                            00000003
PWMPW6                            00000004
PWMPW7                            00000005
PWMPW8                            00000006
PWMPW9                            00000007
RA0                               00000000
RA0PPS                            00000EE2
RA0PPS0                           00000000
RA0PPS1                           00000001
RA0PPS2                           00000002
RA0PPS3                           00000003
RA0PPS4                           00000004
RA1                               00000001
RA1PPS                            00000EE3
RA1PPS0                           00000000
MPASM 5.87        SERIALINTERRUPTCOUNTER.ASM   1-27-2021  12:24:50         PAGE 49


SYMBOL TABLE
  LABEL                             VALUE 

RA1PPS1                           00000001
RA1PPS2                           00000002
RA1PPS3                           00000003
RA1PPS4                           00000004
RA2                               00000002
RA2PPS                            00000EE4
RA2PPS0                           00000000
RA2PPS1                           00000001
RA2PPS2                           00000002
RA2PPS3                           00000003
RA2PPS4                           00000004
RA3                               00000003
RA3PPS                            00000EE5
RA3PPS0                           00000000
RA3PPS1                           00000001
RA3PPS2                           00000002
RA3PPS3                           00000003
RA3PPS4                           00000004
RA4                               00000004
RA4PPS                            00000EE6
RA4PPS0                           00000000
RA4PPS1                           00000001
RA4PPS2                           00000002
RA4PPS3                           00000003
RA4PPS4                           00000004
RA5                               00000005
RA5PPS                            00000EE7
RA5PPS0                           00000000
RA5PPS1                           00000001
RA5PPS2                           00000002
RA5PPS3                           00000003
RA5PPS4                           00000004
RA6                               00000006
RA6PPS                            00000EE8
RA6PPS0                           00000000
RA6PPS1                           00000001
RA6PPS2                           00000002
RA6PPS3                           00000003
RA6PPS4                           00000004
RA7                               00000007
RA7PPS                            00000EE9
RA7PPS0                           00000000
RA7PPS1                           00000001
RA7PPS2                           00000002
RA7PPS3                           00000003
RA7PPS4                           00000004
RB0                               00000000
RB0PPS                            00000EEA
RB0PPS0                           00000000
RB0PPS1                           00000001
RB0PPS2                           00000002
RB0PPS3                           00000003
RB0PPS4                           00000004
MPASM 5.87        SERIALINTERRUPTCOUNTER.ASM   1-27-2021  12:24:50         PAGE 50


SYMBOL TABLE
  LABEL                             VALUE 

RB1                               00000001
RB1PPS                            00000EEB
RB1PPS0                           00000000
RB1PPS1                           00000001
RB1PPS2                           00000002
RB1PPS3                           00000003
RB1PPS4                           00000004
RB2                               00000002
RB2PPS                            00000EEC
RB2PPS0                           00000000
RB2PPS1                           00000001
RB2PPS2                           00000002
RB2PPS3                           00000003
RB2PPS4                           00000004
RB3                               00000003
RB3PPS                            00000EED
RB3PPS0                           00000000
RB3PPS1                           00000001
RB3PPS2                           00000002
RB3PPS3                           00000003
RB3PPS4                           00000004
RB4                               00000004
RB4PPS                            00000EEE
RB4PPS0                           00000000
RB4PPS1                           00000001
RB4PPS2                           00000002
RB4PPS3                           00000003
RB4PPS4                           00000004
RB5                               00000005
RB5PPS                            00000EEF
RB5PPS0                           00000000
RB5PPS1                           00000001
RB5PPS2                           00000002
RB5PPS3                           00000003
RB5PPS4                           00000004
RB6                               00000006
RB6PPS                            00000EF0
RB6PPS0                           00000000
RB6PPS1                           00000001
RB6PPS2                           00000002
RB6PPS3                           00000003
RB6PPS4                           00000004
RB7                               00000007
RB7PPS                            00000EF1
RB7PPS0                           00000000
RB7PPS1                           00000001
RB7PPS2                           00000002
RB7PPS3                           00000003
RB7PPS4                           00000004
RC0                               00000000
RC0PPS                            00000EF2
RC0PPS0                           00000000
RC0PPS1                           00000001
MPASM 5.87        SERIALINTERRUPTCOUNTER.ASM   1-27-2021  12:24:50         PAGE 51


SYMBOL TABLE
  LABEL                             VALUE 

RC0PPS2                           00000002
RC0PPS3                           00000003
RC0PPS4                           00000004
RC1                               00000001
RC1IE                             00000005
RC1IF                             00000005
RC1IP                             00000005
RC1PPS                            00000EF3
RC1PPS0                           00000000
RC1PPS1                           00000001
RC1PPS2                           00000002
RC1PPS3                           00000003
RC1PPS4                           00000004
RC1REG                            00000F98
RC1STA                            00000F9C
RC2                               00000002
RC2IE                             00000007
RC2IF                             00000007
RC2IP                             00000007
RC2PPS                            00000EF4
RC2PPS0                           00000000
RC2PPS1                           00000001
RC2PPS2                           00000002
RC2PPS3                           00000003
RC2PPS4                           00000004
RC2REG                            00000E94
RC2STA                            00000E98
RC3                               00000003
RC3PPS                            00000EF5
RC3PPS0                           00000000
RC3PPS1                           00000001
RC3PPS2                           00000002
RC3PPS3                           00000003
RC3PPS4                           00000004
RC4                               00000004
RC4PPS                            00000EF6
RC4PPS0                           00000000
RC4PPS1                           00000001
RC4PPS2                           00000002
RC4PPS3                           00000003
RC4PPS4                           00000004
RC5                               00000005
RC5PPS                            00000EF7
RC5PPS0                           00000000
RC5PPS1                           00000001
RC5PPS2                           00000002
RC5PPS3                           00000003
RC5PPS4                           00000004
RC6                               00000006
RC6PPS                            00000EF8
RC6PPS0                           00000000
RC6PPS1                           00000001
RC6PPS2                           00000002
MPASM 5.87        SERIALINTERRUPTCOUNTER.ASM   1-27-2021  12:24:50         PAGE 52


SYMBOL TABLE
  LABEL                             VALUE 

RC6PPS3                           00000003
RC6PPS4                           00000004
RC7                               00000007
RC7PPS                            00000EF9
RC7PPS0                           00000000
RC7PPS1                           00000001
RC7PPS2                           00000002
RC7PPS3                           00000003
RC7PPS4                           00000004
RCEN                              00000003
RCIDL                             00000006
RCIE                              00000005
RCIF                              00000005
RCIP                              00000005
RCM                               00000000
RCREG                             00000F98
RCREG1                            00000F98
RCREG2                            00000E94
RCSTA                             00000F9C
RCSTA1                            00000F9C
RCSTA2                            00000E98
RD                                00000000
RD0                               00000000
RD0PPS                            00000EFA
RD0PPS0                           00000000
RD0PPS1                           00000001
RD0PPS2                           00000002
RD0PPS3                           00000003
RD0PPS4                           00000004
RD1                               00000001
RD16                              00000001
RD1PPS                            00000EFB
RD1PPS0                           00000000
RD1PPS1                           00000001
RD1PPS2                           00000002
RD1PPS3                           00000003
RD1PPS4                           00000004
RD2                               00000002
RD2PPS                            00000EFC
RD2PPS0                           00000000
RD2PPS1                           00000001
RD2PPS2                           00000002
RD2PPS3                           00000003
RD2PPS4                           00000004
RD3                               00000003
RD3PPS                            00000EFD
RD3PPS0                           00000000
RD3PPS1                           00000001
RD3PPS2                           00000002
RD3PPS3                           00000003
RD3PPS4                           00000004
RD4                               00000004
RD4PPS                            00000EFE
MPASM 5.87        SERIALINTERRUPTCOUNTER.ASM   1-27-2021  12:24:50         PAGE 53


SYMBOL TABLE
  LABEL                             VALUE 

RD4PPS0                           00000000
RD4PPS1                           00000001
RD4PPS2                           00000002
RD4PPS3                           00000003
RD4PPS4                           00000004
RD5                               00000005
RD5PPS                            00000EFF
RD5PPS0                           00000000
RD5PPS1                           00000001
RD5PPS2                           00000002
RD5PPS3                           00000003
RD5PPS4                           00000004
RD6                               00000006
RD6PPS                            00000F00
RD6PPS0                           00000000
RD6PPS1                           00000001
RD6PPS2                           00000002
RD6PPS3                           00000003
RD6PPS4                           00000004
RD7                               00000007
RD7PPS                            00000F01
RD7PPS0                           00000000
RD7PPS1                           00000001
RD7PPS2                           00000002
RD7PPS3                           00000003
RD7PPS4                           00000004
RDY_FVRCON                        00000006
RDY_HLVDCON0                      00000004
RE0                               00000000
RE0PPS                            00000F02
RE0PPS0                           00000000
RE0PPS1                           00000001
RE0PPS2                           00000002
RE0PPS3                           00000003
RE0PPS4                           00000004
RE1                               00000001
RE1PPS                            00000F03
RE1PPS0                           00000000
RE1PPS1                           00000001
RE1PPS2                           00000002
RE1PPS3                           00000003
RE1PPS4                           00000004
RE2                               00000002
RE2PPS                            00000F04
RE2PPS0                           00000000
RE2PPS1                           00000001
RE2PPS2                           00000002
RE2PPS3                           00000003
RE2PPS4                           00000004
RE3                               00000003
READ_WRITE                        00000002
REN                               00000006
RI                                00000002
MPASM 5.87        SERIALINTERRUPTCOUNTER.ASM   1-27-2021  12:24:50         PAGE 54


SYMBOL TABLE
  LABEL                             VALUE 

RMCLR                             00000003
ROI                               00000005
RSEL0                             00000000
RSEL1                             00000001
RSEL2                             00000002
RSEL3                             00000003
RSEN                              00000001
RVREG                             00000002
RWDT                              00000004
RX1PPS                            00000EB0
RX2PPS                            00000E88
RX2PPS0                           00000000
RX2PPS1                           00000001
RX2PPS2                           00000002
RX2PPS3                           00000003
RX2PPS4                           00000004
RX9                               00000006
RX9D                              00000000
RXDT1PPS                          00000EB0
RXDT2PPS                          00000E88
RXPPS                             00000EB0
RXPPS0                            00000000
RXPPS1                            00000001
RXPPS2                            00000002
RXPPS3                            00000003
RXPPS4                            00000004
R_NOT_W                           00000002
R_W                               00000002
S                                 00000003
SBCDE                             00000002
SBOREN                            00000007
SCANBUSY                          00000005
SCANCON0                          00000F4A
SCANEN                            00000007
SCANGO                            00000006
SCANHADR                          00000F47
SCANHADR0                         00000000
SCANHADR1                         00000001
SCANHADR10                        00000002
SCANHADR11                        00000003
SCANHADR12                        00000004
SCANHADR13                        00000005
SCANHADR14                        00000006
SCANHADR15                        00000007
SCANHADR16                        00000000
SCANHADR17                        00000001
SCANHADR18                        00000002
SCANHADR19                        00000003
SCANHADR2                         00000002
SCANHADR20                        00000004
SCANHADR21                        00000005
SCANHADR3                         00000003
SCANHADR4                         00000004
MPASM 5.87        SERIALINTERRUPTCOUNTER.ASM   1-27-2021  12:24:50         PAGE 55


SYMBOL TABLE
  LABEL                             VALUE 

SCANHADR5                         00000005
SCANHADR6                         00000006
SCANHADR7                         00000007
SCANHADR8                         00000000
SCANHADR9                         00000001
SCANHADRH                         00000F48
SCANHADRL                         00000F47
SCANHADRU                         00000F49
SCANIE                            00000007
SCANIF                            00000007
SCANINTM                          00000003
SCANINVALID                       00000004
SCANIP                            00000007
SCANLADR                          00000F44
SCANLADR0                         00000000
SCANLADR1                         00000001
SCANLADR10                        00000002
SCANLADR11                        00000003
SCANLADR12                        00000004
SCANLADR13                        00000005
SCANLADR14                        00000006
SCANLADR15                        00000007
SCANLADR16                        00000000
SCANLADR17                        00000001
SCANLADR18                        00000002
SCANLADR19                        00000003
SCANLADR2                         00000002
SCANLADR20                        00000004
SCANLADR21                        00000005
SCANLADR3                         00000003
SCANLADR4                         00000004
SCANLADR5                         00000005
SCANLADR6                         00000006
SCANLADR7                         00000007
SCANLADR8                         00000000
SCANLADR9                         00000001
SCANLADRH                         00000F45
SCANLADRL                         00000F44
SCANLADRU                         00000F46
SCANMD                            00000003
SCANMODE0                         00000000
SCANMODE1                         00000001
SCANTRIG                          00000F4B
SCANTSEL0                         00000000
SCANTSEL1                         00000001
SCANTSEL2                         00000002
SCANTSEL3                         00000003
SCIE                              00000005
SCKP                              00000004
SDAHT                             00000003
SECER                             00000006
SECRD                             00000001
SECWR                             00000005
MPASM 5.87        SERIALINTERRUPTCOUNTER.ASM   1-27-2021  12:24:50         PAGE 56


SYMBOL TABLE
  LABEL                             VALUE 

SEL0                              00000000
SEL1                              00000001
SEL2                              00000002
SEL3                              00000003
SENDB                             00000003
SEN_SSP1CON2                      00000000
SEN_SSP2CON2                      00000000
SEN_WDTCON0                       00000000
SEN_ZCDCON                        00000007
SHFT0                             00000000
SHFT1                             00000001
SHFT10                            00000002
SHFT11                            00000003
SHFT12                            00000004
SHFT13                            00000005
SHFT14                            00000006
SHFT15                            00000007
SHFT2                             00000002
SHFT3                             00000003
SHFT4                             00000004
SHFT5                             00000005
SHFT6                             00000006
SHFT7                             00000007
SHFT8                             00000000
SHFT9                             00000001
SHIFTM                            00000001
SHUTDOWN                          00000007
SLRA0                             00000000
SLRA1                             00000001
SLRA2                             00000002
SLRA3                             00000003
SLRA4                             00000004
SLRA5                             00000005
SLRA6                             00000006
SLRA7                             00000007
SLRB0                             00000000
SLRB1                             00000001
SLRB2                             00000002
SLRB3                             00000003
SLRB4                             00000004
SLRB5                             00000005
SLRB6                             00000006
SLRB7                             00000007
SLRC0                             00000000
SLRC1                             00000001
SLRC2                             00000002
SLRC3                             00000003
SLRC4                             00000004
SLRC5                             00000005
SLRC6                             00000006
SLRC7                             00000007
SLRCONA                           00000F09
SLRCONB                           00000F11
MPASM 5.87        SERIALINTERRUPTCOUNTER.ASM   1-27-2021  12:24:50         PAGE 57


SYMBOL TABLE
  LABEL                             VALUE 

SLRCONC                           00000F19
SLRCOND                           00000F1E
SLRCONE                           00000F26
SLRD0                             00000000
SLRD1                             00000001
SLRD2                             00000002
SLRD3                             00000003
SLRD4                             00000004
SLRD5                             00000005
SLRD6                             00000006
SLRD7                             00000007
SLRE0                             00000000
SLRE1                             00000001
SLRE2                             00000002
SMP                               00000007
SOR                               00000003
SOSCEN                            00000003
SOSCPWR                           00000006
SP0                               00000000
SP1                               00000001
SP1BRG                            00000F9A
SP1BRGH                           00000F9B
SP1BRGL                           00000F9A
SP2                               00000002
SP2BRG                            00000E96
SP2BRGH                           00000E97
SP2BRGL                           00000E96
SP3                               00000003
SP4                               00000004
SP5                               00000005
SPBRG                             00000F9A
SPBRG1                            00000F9A
SPBRG2                            00000E96
SPBRGH                            00000F9B
SPBRGH1                           00000F9B
SPBRGH2                           00000E97
SPBRGL                            00000F9A
SPEN                              00000007
SRCS0                             00000000
SRCS1                             00000001
SRCS2                             00000002
SRCS3                             00000003
SREN                              00000005
SSP1ADD                           00000F92
SSP1BUF                           00000F91
SSP1CLKPPS                        00000EB2
SSP1CLKPPS0                       00000000
SSP1CLKPPS1                       00000001
SSP1CLKPPS2                       00000002
SSP1CLKPPS3                       00000003
SSP1CLKPPS4                       00000004
SSP1CON1                          00000F95
SSP1CON2                          00000F96
MPASM 5.87        SERIALINTERRUPTCOUNTER.ASM   1-27-2021  12:24:50         PAGE 58


SYMBOL TABLE
  LABEL                             VALUE 

SSP1CON3                          00000F97
SSP1DATPPS                        00000EB3
SSP1DATPPS0                       00000000
SSP1DATPPS1                       00000001
SSP1DATPPS2                       00000002
SSP1DATPPS3                       00000003
SSP1DATPPS4                       00000004
SSP1IE                            00000000
SSP1IF                            00000000
SSP1IP                            00000000
SSP1MSK                           00000F93
SSP1SSPPS                         00000EB4
SSP1SSPPS0                        00000000
SSP1SSPPS1                        00000001
SSP1SSPPS2                        00000002
SSP1SSPPS3                        00000003
SSP1SSPPS4                        00000004
SSP1STAT                          00000F94
SSP2ADD                           00000E8E
SSP2BUF                           00000E8D
SSP2CLKPPS                        00000E8A
SSP2CLKPPS0                       00000000
SSP2CLKPPS1                       00000001
SSP2CLKPPS2                       00000002
SSP2CLKPPS3                       00000003
SSP2CLKPPS4                       00000004
SSP2CON1                          00000E91
SSP2CON2                          00000E92
SSP2CON3                          00000E93
SSP2DATPPS                        00000E8B
SSP2DATPPS0                       00000000
SSP2DATPPS1                       00000001
SSP2DATPPS2                       00000002
SSP2DATPPS3                       00000003
SSP2DATPPS4                       00000004
SSP2IE                            00000002
SSP2IF                            00000002
SSP2IP                            00000002
SSP2MSK                           00000E8F
SSP2SSPPS                         00000E8C
SSP2SSPPS0                        00000000
SSP2SSPPS1                        00000001
SSP2SSPPS2                        00000002
SSP2SSPPS3                        00000003
SSP2SSPPS4                        00000004
SSP2STAT                          00000E90
SSPCLKPPS                         00000EB2
SSPCLKPPS0                        00000000
SSPCLKPPS1                        00000001
SSPCLKPPS2                        00000002
SSPCLKPPS3                        00000003
SSPCLKPPS4                        00000004
SSPDATPPS                         00000EB3
MPASM 5.87        SERIALINTERRUPTCOUNTER.ASM   1-27-2021  12:24:50         PAGE 59


SYMBOL TABLE
  LABEL                             VALUE 

SSPDATPPS0                        00000000
SSPDATPPS1                        00000001
SSPDATPPS2                        00000002
SSPDATPPS3                        00000003
SSPDATPPS4                        00000004
SSPEN                             00000005
SSPIE                             00000000
SSPIF                             00000000
SSPIP                             00000000
SSPM0                             00000000
SSPM1                             00000001
SSPM2                             00000002
SSPM3                             00000003
SSPOV                             00000006
SSPSSPPS                          00000EB4
SSPSSPPS0                         00000000
SSPSSPPS1                         00000001
SSPSSPPS2                         00000002
SSPSSPPS3                         00000003
SSPSSPPS4                         00000004
STATE                             00000002
STATUS                            00000FD8
STKOVF                            00000007
STKPTR                            00000FFC
STKPTR0                           00000000
STKPTR1                           00000001
STKPTR2                           00000002
STKPTR3                           00000003
STKPTR4                           00000004
STKPTR5                           00000005
STKUNF                            00000006
STRA                              00000000
STRB                              00000001
STRC                              00000002
STRD                              00000003
SWDTEN                            00000000
SYNC_CM1CON0                      00000000
SYNC_CM2CON0                      00000000
SYNC_TX1STA                       00000004
SYNC_TX2STA                       00000004
SYNC_TXSTA                        00000004
SYNC_TXSTA1                       00000004
SYNC_TXSTA2                       00000004
SYSCMD                            00000007
T016BIT                           00000004
T0ASYNC                           00000004
T0CKIPPS                          00000E9F
T0CKIPPS0                         00000000
T0CKIPPS1                         00000001
T0CKIPPS2                         00000002
T0CKIPPS3                         00000003
T0CKPS0                           00000000
T0CKPS1                           00000001
MPASM 5.87        SERIALINTERRUPTCOUNTER.ASM   1-27-2021  12:24:50         PAGE 60


SYMBOL TABLE
  LABEL                             VALUE 

T0CKPS2                           00000002
T0CKPS3                           00000003
T0CON0                            00000FD4
T0CON1                            00000FD5
T0CS0                             00000005
T0CS1                             00000006
T0CS2                             00000007
T0EN                              00000007
T0OUT                             00000005
T0OUTPS0                          00000000
T0OUTPS1                          00000001
T0OUTPS2                          00000002
T0OUTPS3                          00000003
T0PR0                             00000000
T0PR1                             00000001
T0PR2                             00000002
T0PR3                             00000003
T0PR4                             00000004
T0PR5                             00000005
T0PR6                             00000006
T0PR7                             00000007
T0PS0                             00000000
T0PS1                             00000001
T0PS2                             00000002
T0PS3                             00000003
T1CKIPPS                          00000EA0
T1CKIPPS0                         00000000
T1CKIPPS1                         00000001
T1CKIPPS2                         00000002
T1CKIPPS3                         00000003
T1CKIPPS4                         00000004
T1CKPS0                           00000004
T1CKPS1                           00000005
T1CLK                             00000FD1
T1CON                             00000FCE
T1CS0                             00000000
T1CS1                             00000001
T1CS2                             00000002
T1CS3                             00000003
T1GATE                            00000FD0
T1GCON                            00000FCF
T1GE                              00000007
T1GGO                             00000003
T1GGO_NOT_DONE                    00000003
T1GPOL                            00000006
T1GPPS                            00000EA1
T1GPPS0                           00000000
T1GPPS1                           00000001
T1GPPS2                           00000002
T1GPPS3                           00000003
T1GPPS4                           00000004
T1GSPM                            00000004
T1GSS0                            00000000
MPASM 5.87        SERIALINTERRUPTCOUNTER.ASM   1-27-2021  12:24:50         PAGE 61


SYMBOL TABLE
  LABEL                             VALUE 

T1GSS1                            00000001
T1GSS2                            00000002
T1GSS3                            00000003
T1GTM                             00000005
T1GVAL                            00000002
T1RD16                            00000001
T2CKPOL                           00000006
T2CKPS0                           00000004
T2CKPS1                           00000005
T2CKPS2                           00000006
T2CKSYNC                          00000005
T2CLK                             00000FBE
T2CLKCON                          00000FBE
T2CON                             00000FBC
T2CS0                             00000000
T2CS1                             00000001
T2CS2                             00000002
T2CS3                             00000003
T2HLT                             00000FBD
T2INPPS                           00000EA6
T2INPPS0                          00000000
T2INPPS1                          00000001
T2INPPS2                          00000002
T2INPPS3                          00000003
T2INPPS4                          00000004
T2MODE0                           00000000
T2MODE1                           00000001
T2MODE2                           00000002
T2MODE3                           00000003
T2MODE4                           00000004
T2ON                              00000007
T2OUTPS0                          00000000
T2OUTPS1                          00000001
T2OUTPS2                          00000002
T2OUTPS3                          00000003
T2PR                              00000FBB
T2PSYNC                           00000007
T2RSEL0                           00000000
T2RSEL1                           00000001
T2RSEL2                           00000002
T2RSEL3                           00000003
T2RST                             00000FBF
T2TMR                             00000FBA
T3CKIPPS                          00000EA2
T3CKIPPS0                         00000000
T3CKIPPS1                         00000001
T3CKIPPS2                         00000002
T3CKIPPS3                         00000003
T3CKIPPS4                         00000004
T3CKPS0                           00000004
T3CKPS1                           00000005
T3CLK                             00000FCB
T3CON                             00000FC8
MPASM 5.87        SERIALINTERRUPTCOUNTER.ASM   1-27-2021  12:24:50         PAGE 62


SYMBOL TABLE
  LABEL                             VALUE 

T3CS0                             00000000
T3CS1                             00000001
T3CS2                             00000002
T3CS3                             00000003
T3GATE                            00000FCA
T3GCON                            00000FC9
T3GE                              00000007
T3GGO                             00000003
T3GGO_NOT_DONE                    00000003
T3GPOL                            00000006
T3GPPS                            00000EA3
T3GPPS0                           00000000
T3GPPS1                           00000001
T3GPPS2                           00000002
T3GPPS3                           00000003
T3GPPS4                           00000004
T3GSPM                            00000004
T3GSS0                            00000000
T3GSS1                            00000001
T3GSS2                            00000002
T3GSS3                            00000003
T3GTM                             00000005
T3GVAL                            00000002
T3RD16                            00000001
T4CKPOL                           00000006
T4CKPS0                           00000004
T4CKPS1                           00000005
T4CKPS2                           00000006
T4CKSYNC                          00000005
T4CLK                             00000FB8
T4CLKCON                          00000FB8
T4CON                             00000FB6
T4CS0                             00000000
T4CS1                             00000001
T4CS2                             00000002
T4CS3                             00000003
T4HLT                             00000FB7
T4INPPS                           00000EA7
T4INPPS0                          00000000
T4INPPS1                          00000001
T4INPPS2                          00000002
T4INPPS3                          00000003
T4INPPS4                          00000004
T4MODE0                           00000000
T4MODE1                           00000001
T4MODE2                           00000002
T4MODE3                           00000003
T4MODE4                           00000004
T4ON                              00000007
T4OUTPS0                          00000000
T4OUTPS1                          00000001
T4OUTPS2                          00000002
T4OUTPS3                          00000003
MPASM 5.87        SERIALINTERRUPTCOUNTER.ASM   1-27-2021  12:24:50         PAGE 63


SYMBOL TABLE
  LABEL                             VALUE 

T4PR                              00000FB5
T4PSYNC                           00000007
T4RSEL0                           00000000
T4RSEL1                           00000001
T4RSEL2                           00000002
T4RSEL3                           00000003
T4RST                             00000FB9
T4TMR                             00000FB4
T5CKIPPS                          00000EA4
T5CKIPPS0                         00000000
T5CKIPPS1                         00000001
T5CKIPPS2                         00000002
T5CKIPPS3                         00000003
T5CKIPPS4                         00000004
T5CKPS0                           00000004
T5CKPS1                           00000005
T5CLK                             00000FC5
T5CON                             00000FC2
T5CS0                             00000000
T5CS1                             00000001
T5CS2                             00000002
T5CS3                             00000003
T5GATE                            00000FC4
T5GCON                            00000FC3
T5GE                              00000007
T5GGO                             00000003
T5GGO_NOT_DONE                    00000003
T5GPOL                            00000006
T5GPPS                            00000EA5
T5GPPS0                           00000000
T5GPPS1                           00000001
T5GPPS2                           00000002
T5GPPS3                           00000003
T5GPPS4                           00000004
T5GSPM                            00000004
T5GSS0                            00000000
T5GSS1                            00000001
T5GSS2                            00000002
T5GSS3                            00000003
T5GTM                             00000005
T5GVAL                            00000002
T5RD16                            00000001
T6CKPOL                           00000006
T6CKPS0                           00000004
T6CKPS1                           00000005
T6CKPS2                           00000006
T6CKSYNC                          00000005
T6CLK                             00000FB2
T6CLKCON                          00000FB2
T6CON                             00000FB0
T6CS0                             00000000
T6CS1                             00000001
T6CS2                             00000002
MPASM 5.87        SERIALINTERRUPTCOUNTER.ASM   1-27-2021  12:24:50         PAGE 64


SYMBOL TABLE
  LABEL                             VALUE 

T6CS3                             00000003
T6HLT                             00000FB1
T6INPPS                           00000EA8
T6INPPS0                          00000000
T6INPPS1                          00000001
T6INPPS2                          00000002
T6INPPS3                          00000003
T6INPPS4                          00000004
T6MODE0                           00000000
T6MODE1                           00000001
T6MODE2                           00000002
T6MODE3                           00000003
T6MODE4                           00000004
T6ON                              00000007
T6OUTPS0                          00000000
T6OUTPS1                          00000001
T6OUTPS2                          00000002
T6OUTPS3                          00000003
T6PR                              00000FAF
T6PSYNC                           00000007
T6RSEL0                           00000000
T6RSEL1                           00000001
T6RSEL2                           00000002
T6RSEL3                           00000003
T6RST                             00000FB3
T6TMR                             00000FAE
TABLAT                            00000FF5
TBLPTR                            00000FF6
TBLPTRH                           00000FF7
TBLPTRL                           00000FF6
TBLPTRU                           00000FF8
TMR0                              00000FD2
TMR0H                             00000FD3
TMR0H0                            00000000
TMR0H1                            00000001
TMR0H2                            00000002
TMR0H3                            00000003
TMR0H4                            00000004
TMR0H5                            00000005
TMR0H6                            00000006
TMR0H7                            00000007
TMR0IE                            00000005
TMR0IF                            00000005
TMR0IP                            00000005
TMR0L                             00000FD2
TMR0L0                            00000000
TMR0L1                            00000001
TMR0L2                            00000002
TMR0L3                            00000003
TMR0L4                            00000004
TMR0L5                            00000005
TMR0L6                            00000006
TMR0L7                            00000007
MPASM 5.87        SERIALINTERRUPTCOUNTER.ASM   1-27-2021  12:24:50         PAGE 65


SYMBOL TABLE
  LABEL                             VALUE 

TMR0MD                            00000000
TMR1                              00000FCC
TMR10                             00000000
TMR11                             00000001
TMR110                            00000002
TMR111                            00000003
TMR112                            00000004
TMR113                            00000005
TMR114                            00000006
TMR115                            00000007
TMR12                             00000002
TMR13                             00000003
TMR14                             00000004
TMR15                             00000005
TMR16                             00000006
TMR17                             00000007
TMR18                             00000000
TMR19                             00000001
TMR1CLK                           00000FD1
TMR1GATE                          00000FD0
TMR1GIE                           00000000
TMR1GIF                           00000000
TMR1GIP                           00000000
TMR1H                             00000FCD
TMR1H0                            00000000
TMR1H1                            00000001
TMR1H2                            00000002
TMR1H3                            00000003
TMR1H4                            00000004
TMR1H5                            00000005
TMR1H6                            00000006
TMR1H7                            00000007
TMR1IE                            00000000
TMR1IF                            00000000
TMR1IP                            00000000
TMR1L                             00000FCC
TMR1L0                            00000000
TMR1L1                            00000001
TMR1L2                            00000002
TMR1L3                            00000003
TMR1L4                            00000004
TMR1L5                            00000005
TMR1L6                            00000006
TMR1L7                            00000007
TMR1MD                            00000001
TMR1ON                            00000000
TMR2                              00000FBA
TMR2IE                            00000001
TMR2IF                            00000001
TMR2IP                            00000001
TMR2MD                            00000002
TMR2ON                            00000007
TMR3                              00000FC6
MPASM 5.87        SERIALINTERRUPTCOUNTER.ASM   1-27-2021  12:24:50         PAGE 66


SYMBOL TABLE
  LABEL                             VALUE 

TMR30                             00000000
TMR31                             00000001
TMR310                            00000002
TMR311                            00000003
TMR312                            00000004
TMR313                            00000005
TMR314                            00000006
TMR315                            00000007
TMR32                             00000002
TMR33                             00000003
TMR34                             00000004
TMR35                             00000005
TMR36                             00000006
TMR37                             00000007
TMR38                             00000000
TMR39                             00000001
TMR3CLK                           00000FCB
TMR3GATE                          00000FCA
TMR3GIE                           00000001
TMR3GIF                           00000001
TMR3GIP                           00000001
TMR3H                             00000FC7
TMR3H0                            00000000
TMR3H1                            00000001
TMR3H2                            00000002
TMR3H3                            00000003
TMR3H4                            00000004
TMR3H5                            00000005
TMR3H6                            00000006
TMR3H7                            00000007
TMR3IE                            00000002
TMR3IF                            00000002
TMR3IP                            00000002
TMR3L                             00000FC6
TMR3L0                            00000000
TMR3L1                            00000001
TMR3L2                            00000002
TMR3L3                            00000003
TMR3L4                            00000004
TMR3L5                            00000005
TMR3L6                            00000006
TMR3L7                            00000007
TMR3MD                            00000003
TMR3ON                            00000000
TMR4                              00000FB4
TMR4IE                            00000003
TMR4IF                            00000003
TMR4IP                            00000003
TMR4MD                            00000004
TMR4ON                            00000007
TMR5                              00000FC0
TMR50                             00000000
TMR51                             00000001
MPASM 5.87        SERIALINTERRUPTCOUNTER.ASM   1-27-2021  12:24:50         PAGE 67


SYMBOL TABLE
  LABEL                             VALUE 

TMR510                            00000002
TMR511                            00000003
TMR512                            00000004
TMR513                            00000005
TMR514                            00000006
TMR515                            00000007
TMR52                             00000002
TMR53                             00000003
TMR54                             00000004
TMR55                             00000005
TMR56                             00000006
TMR57                             00000007
TMR58                             00000000
TMR59                             00000001
TMR5CLK                           00000FC5
TMR5GATE                          00000FC4
TMR5GIE                           00000002
TMR5GIF                           00000002
TMR5GIP                           00000002
TMR5H                             00000FC1
TMR5H0                            00000000
TMR5H1                            00000001
TMR5H2                            00000002
TMR5H3                            00000003
TMR5H4                            00000004
TMR5H5                            00000005
TMR5H6                            00000006
TMR5H7                            00000007
TMR5IE                            00000004
TMR5IF                            00000004
TMR5IP                            00000004
TMR5L                             00000FC0
TMR5L0                            00000000
TMR5L1                            00000001
TMR5L2                            00000002
TMR5L3                            00000003
TMR5L4                            00000004
TMR5L5                            00000005
TMR5L6                            00000006
TMR5L7                            00000007
TMR5MD                            00000005
TMR5ON                            00000000
TMR6                              00000FAE
TMR6IE                            00000005
TMR6IF                            00000005
TMR6IP                            00000005
TMR6MD                            00000006
TMR6ON                            00000007
TO                                00000006
TOS                               00000FFD
TOSH                              00000FFE
TOSL                              00000FFD
TOSU                              00000FFF
MPASM 5.87        SERIALINTERRUPTCOUNTER.ASM   1-27-2021  12:24:50         PAGE 68


SYMBOL TABLE
  LABEL                             VALUE 

TRISA                             00000F87
TRISA0                            00000000
TRISA1                            00000001
TRISA2                            00000002
TRISA3                            00000003
TRISA4                            00000004
TRISA5                            00000005
TRISA6                            00000006
TRISA7                            00000007
TRISB                             00000F88
TRISB0                            00000000
TRISB1                            00000001
TRISB2                            00000002
TRISB3                            00000003
TRISB4                            00000004
TRISB5                            00000005
TRISB6                            00000006
TRISB7                            00000007
TRISC                             00000F89
TRISC0                            00000000
TRISC1                            00000001
TRISC2                            00000002
TRISC3                            00000003
TRISC4                            00000004
TRISC5                            00000005
TRISC6                            00000006
TRISC7                            00000007
TRISD                             00000F8A
TRISD0                            00000000
TRISD1                            00000001
TRISD2                            00000002
TRISD3                            00000003
TRISD4                            00000004
TRISD5                            00000005
TRISD6                            00000006
TRISD7                            00000007
TRISE                             00000F8B
TRISE0                            00000000
TRISE1                            00000001
TRISE2                            00000002
TRMT                              00000001
TSEL0                             00000000
TSEL1                             00000001
TSEL2                             00000002
TSEL3                             00000003
TSEN                              00000005
TSRNG                             00000004
TUN0                              00000000
TUN1                              00000001
TUN2                              00000002
TUN3                              00000003
TUN4                              00000004
TUN5                              00000005
MPASM 5.87        SERIALINTERRUPTCOUNTER.ASM   1-27-2021  12:24:50         PAGE 69


SYMBOL TABLE
  LABEL                             VALUE 

TX1IE                             00000004
TX1IF                             00000004
TX1IP                             00000004
TX1PPS                            00000EB1
TX1REG                            00000F99
TX1STA                            00000F9D
TX2IE                             00000006
TX2IF                             00000006
TX2IP                             00000006
TX2PPS                            00000E89
TX2REG                            00000E95
TX2STA                            00000E99
TX9                               00000006
TX9D                              00000000
TXCK1PPS                          00000EB1
TXCK2PPS                          00000E89
TXEN                              00000005
TXIE                              00000004
TXIF                              00000004
TXIP                              00000004
TXPPS                             00000EB1
TXPPS0                            00000000
TXPPS1                            00000001
TXPPS2                            00000002
TXPPS3                            00000003
TXPPS4                            00000004
TXREG                             00000F99
TXREG1                            00000F99
TXREG2                            00000E95
TXSTA                             00000F9D
TXSTA1                            00000F9D
TXSTA2                            00000E99
UA                                00000001
UART1MD                           00000006
UART2MD                           00000007
VREGCON                           00000EDA
VREGPM0                           00000000
VREGPM1                           00000001
W                                 00000000
WCOL                              00000007
WDTCON0                           00000ECD
WDTCON1                           00000ECE
WDTCS0                            00000004
WDTCS1                            00000005
WDTCS2                            00000006
WDTPS0                            00000001
WDTPS1                            00000002
WDTPS2                            00000003
WDTPS3                            00000004
WDTPS4                            00000005
WDTPSCNT0                         00000000
WDTPSCNT1                         00000001
WDTPSCNT10                        00000002
MPASM 5.87        SERIALINTERRUPTCOUNTER.ASM   1-27-2021  12:24:50         PAGE 70


SYMBOL TABLE
  LABEL                             VALUE 

WDTPSCNT11                        00000003
WDTPSCNT12                        00000004
WDTPSCNT13                        00000005
WDTPSCNT14                        00000006
WDTPSCNT15                        00000007
WDTPSCNT16                        00000000
WDTPSCNT17                        00000001
WDTPSCNT2                         00000002
WDTPSCNT3                         00000003
WDTPSCNT4                         00000004
WDTPSCNT5                         00000005
WDTPSCNT6                         00000006
WDTPSCNT7                         00000007
WDTPSCNT8                         00000000
WDTPSCNT9                         00000001
WDTPSH                            00000ED0
WDTPSL                            00000ECF
WDTSEN                            00000000
WDTSTATE                          00000002
WDTTMR                            00000ED1
WDTTMR0                           00000003
WDTTMR1                           00000004
WDTTMR2                           00000005
WDTTMR3                           00000006
WDTTMR4                           00000007
WDTWINDOW0                        00000000
WDTWINDOW1                        00000001
WDTWINDOW2                        00000002
WDTWV                             00000005
WINDOW0                           00000000
WINDOW1                           00000001
WINDOW2                           00000002
WPUA                              00000F0B
WPUA0                             00000000
WPUA1                             00000001
WPUA2                             00000002
WPUA3                             00000003
WPUA4                             00000004
WPUA5                             00000005
WPUA6                             00000006
WPUA7                             00000007
WPUB                              00000F13
WPUB0                             00000000
WPUB1                             00000001
WPUB2                             00000002
WPUB3                             00000003
WPUB4                             00000004
WPUB5                             00000005
WPUB6                             00000006
WPUB7                             00000007
WPUC                              00000F1B
WPUC0                             00000000
WPUC1                             00000001
MPASM 5.87        SERIALINTERRUPTCOUNTER.ASM   1-27-2021  12:24:50         PAGE 71


SYMBOL TABLE
  LABEL                             VALUE 

WPUC2                             00000002
WPUC3                             00000003
WPUC4                             00000004
WPUC5                             00000005
WPUC6                             00000006
WPUC7                             00000007
WPUD                              00000F20
WPUD0                             00000000
WPUD1                             00000001
WPUD2                             00000002
WPUD3                             00000003
WPUD4                             00000004
WPUD5                             00000005
WPUD6                             00000006
WPUD7                             00000007
WPUE                              00000F28
WPUE0                             00000000
WPUE1                             00000001
WPUE2                             00000002
WPUE3                             00000003
WR                                00000004
WREG                              00000FE8
WUE                               00000001
WaitRX                            0000007A
WaitTX                            00000086
X1                                00000001
X10                               00000002
X11                               00000003
X12                               00000004
X13                               00000005
X14                               00000006
X15                               00000007
X2                                00000002
X3                                00000003
X4                                00000004
X5                                00000005
X6                                00000006
X7                                00000007
X8                                00000000
X9                                00000001
Z                                 00000002
ZCDCON                            00000F2D
ZCDIE                             00000006
ZCDIF                             00000006
ZCDINTN                           00000000
ZCDINTP                           00000001
ZCDIP                             00000006
ZCDMD                             00000000
ZCDOUT                            00000005
ZCDPOL                            00000004
ZCDSEN                            00000007
_BOREN_NOSLP_2L                   000000BF
_BOREN_OFF_2L                     0000003F
MPASM 5.87        SERIALINTERRUPTCOUNTER.ASM   1-27-2021  12:24:50         PAGE 72


SYMBOL TABLE
  LABEL                             VALUE 

_BOREN_ON_2L                      0000007F
_BOREN_SBORDIS_2L                 000000FF
_BORV_VBOR_190_2H                 000000FF
_BORV_VBOR_245_2H                 000000FE
_BORV_VBOR_270_2H                 000000FD
_BORV_VBOR_285_2H                 000000FC
_CLKOUTEN_OFF_1H                  000000FF
_CLKOUTEN_ON_1H                   000000FE
_CONFIG1H                         00300001
_CONFIG1L                         00300000
_CONFIG2H                         00300003
_CONFIG2L                         00300002
_CONFIG3H                         00300005
_CONFIG3L                         00300004
_CONFIG4H                         00300007
_CONFIG4L                         00300006
_CONFIG5H                         00300009
_CONFIG5L                         00300008
_CONFIG6H                         0030000B
_CONFIG6L                         0030000A
_CPD_OFF_5L                       000000FF
_CPD_ON_5L                        000000FD
_CP_OFF_5L                        000000FF
_CP_ON_5L                         000000FE
_CSWEN_OFF_1H                     000000F7
_CSWEN_ON_1H                      000000FF
_DEVID1                           003FFFFE
_DEVID2                           003FFFFF
_EBTR0_OFF_6L                     000000FF
_EBTR0_ON_6L                      000000FE
_EBTR1_OFF_6L                     000000FF
_EBTR1_ON_6L                      000000FD
_EBTR2_OFF_6L                     000000FF
_EBTR2_ON_6L                      000000FB
_EBTR3_OFF_6L                     000000FF
_EBTR3_ON_6L                      000000F7
_EBTR4_OFF_6L                     000000FF
_EBTR4_ON_6L                      000000EF
_EBTR5_OFF_6L                     000000FF
_EBTR5_ON_6L                      000000DF
_EBTR6_OFF_6L                     000000FF
_EBTR6_ON_6L                      000000BF
_EBTR7_OFF_6L                     000000FF
_EBTR7_ON_6L                      0000007F
_EBTRB_OFF_6H                     000000FF
_EBTRB_ON_6H                      000000FD
_FCMEN_OFF_1H                     000000DF
_FCMEN_ON_1H                      000000FF
_FEXTOSC_ECH_1L                   000000FF
_FEXTOSC_ECL_1L                   000000FD
_FEXTOSC_ECM_1L                   000000FE
_FEXTOSC_HS_1L                    000000FA
_FEXTOSC_LP_1L                    000000F8
MPASM 5.87        SERIALINTERRUPTCOUNTER.ASM   1-27-2021  12:24:50         PAGE 73


SYMBOL TABLE
  LABEL                             VALUE 

_FEXTOSC_OFF_1L                   000000FC
_FEXTOSC_RESERVED_1L              000000FB
_FEXTOSC_XT_1L                    000000F9
_IDLOC0                           00200000
_IDLOC1                           00200001
_IDLOC10                          0020000A
_IDLOC100                         00200064
_IDLOC101                         00200065
_IDLOC102                         00200066
_IDLOC103                         00200067
_IDLOC104                         00200068
_IDLOC105                         00200069
_IDLOC106                         0020006A
_IDLOC107                         0020006B
_IDLOC108                         0020006C
_IDLOC109                         0020006D
_IDLOC11                          0020000B
_IDLOC110                         0020006E
_IDLOC111                         0020006F
_IDLOC112                         00200070
_IDLOC113                         00200071
_IDLOC114                         00200072
_IDLOC115                         00200073
_IDLOC116                         00200074
_IDLOC117                         00200075
_IDLOC118                         00200076
_IDLOC119                         00200077
_IDLOC12                          0020000C
_IDLOC120                         00200078
_IDLOC121                         00200079
_IDLOC122                         0020007A
_IDLOC123                         0020007B
_IDLOC124                         0020007C
_IDLOC125                         0020007D
_IDLOC126                         0020007E
_IDLOC127                         0020007F
_IDLOC128                         00200080
_IDLOC129                         00200081
_IDLOC13                          0020000D
_IDLOC130                         00200082
_IDLOC131                         00200083
_IDLOC132                         00200084
_IDLOC133                         00200085
_IDLOC134                         00200086
_IDLOC135                         00200087
_IDLOC136                         00200088
_IDLOC137                         00200089
_IDLOC138                         0020008A
_IDLOC139                         0020008B
_IDLOC14                          0020000E
_IDLOC140                         0020008C
_IDLOC141                         0020008D
_IDLOC142                         0020008E
MPASM 5.87        SERIALINTERRUPTCOUNTER.ASM   1-27-2021  12:24:50         PAGE 74


SYMBOL TABLE
  LABEL                             VALUE 

_IDLOC143                         0020008F
_IDLOC144                         00200090
_IDLOC145                         00200091
_IDLOC146                         00200092
_IDLOC147                         00200093
_IDLOC148                         00200094
_IDLOC149                         00200095
_IDLOC15                          0020000F
_IDLOC150                         00200096
_IDLOC151                         00200097
_IDLOC152                         00200098
_IDLOC153                         00200099
_IDLOC154                         0020009A
_IDLOC155                         0020009B
_IDLOC156                         0020009C
_IDLOC157                         0020009D
_IDLOC158                         0020009E
_IDLOC159                         0020009F
_IDLOC16                          00200010
_IDLOC160                         002000A0
_IDLOC161                         002000A1
_IDLOC162                         002000A2
_IDLOC163                         002000A3
_IDLOC164                         002000A4
_IDLOC165                         002000A5
_IDLOC166                         002000A6
_IDLOC167                         002000A7
_IDLOC168                         002000A8
_IDLOC169                         002000A9
_IDLOC17                          00200011
_IDLOC170                         002000AA
_IDLOC171                         002000AB
_IDLOC172                         002000AC
_IDLOC173                         002000AD
_IDLOC174                         002000AE
_IDLOC175                         002000AF
_IDLOC176                         002000B0
_IDLOC177                         002000B1
_IDLOC178                         002000B2
_IDLOC179                         002000B3
_IDLOC18                          00200012
_IDLOC180                         002000B4
_IDLOC181                         002000B5
_IDLOC182                         002000B6
_IDLOC183                         002000B7
_IDLOC184                         002000B8
_IDLOC185                         002000B9
_IDLOC186                         002000BA
_IDLOC187                         002000BB
_IDLOC188                         002000BC
_IDLOC189                         002000BD
_IDLOC19                          00200013
_IDLOC190                         002000BE
MPASM 5.87        SERIALINTERRUPTCOUNTER.ASM   1-27-2021  12:24:50         PAGE 75


SYMBOL TABLE
  LABEL                             VALUE 

_IDLOC191                         002000BF
_IDLOC192                         002000C0
_IDLOC193                         002000C1
_IDLOC194                         002000C2
_IDLOC195                         002000C3
_IDLOC196                         002000C4
_IDLOC197                         002000C5
_IDLOC198                         002000C6
_IDLOC199                         002000C7
_IDLOC2                           00200002
_IDLOC20                          00200014
_IDLOC200                         002000C8
_IDLOC201                         002000C9
_IDLOC202                         002000CA
_IDLOC203                         002000CB
_IDLOC204                         002000CC
_IDLOC205                         002000CD
_IDLOC206                         002000CE
_IDLOC207                         002000CF
_IDLOC208                         002000D0
_IDLOC209                         002000D1
_IDLOC21                          00200015
_IDLOC210                         002000D2
_IDLOC211                         002000D3
_IDLOC212                         002000D4
_IDLOC213                         002000D5
_IDLOC214                         002000D6
_IDLOC215                         002000D7
_IDLOC216                         002000D8
_IDLOC217                         002000D9
_IDLOC218                         002000DA
_IDLOC219                         002000DB
_IDLOC22                          00200016
_IDLOC220                         002000DC
_IDLOC221                         002000DD
_IDLOC222                         002000DE
_IDLOC223                         002000DF
_IDLOC224                         002000E0
_IDLOC225                         002000E1
_IDLOC226                         002000E2
_IDLOC227                         002000E3
_IDLOC228                         002000E4
_IDLOC229                         002000E5
_IDLOC23                          00200017
_IDLOC230                         002000E6
_IDLOC231                         002000E7
_IDLOC232                         002000E8
_IDLOC233                         002000E9
_IDLOC234                         002000EA
_IDLOC235                         002000EB
_IDLOC236                         002000EC
_IDLOC237                         002000ED
_IDLOC238                         002000EE
MPASM 5.87        SERIALINTERRUPTCOUNTER.ASM   1-27-2021  12:24:50         PAGE 76


SYMBOL TABLE
  LABEL                             VALUE 

_IDLOC239                         002000EF
_IDLOC24                          00200018
_IDLOC240                         002000F0
_IDLOC241                         002000F1
_IDLOC242                         002000F2
_IDLOC243                         002000F3
_IDLOC244                         002000F4
_IDLOC245                         002000F5
_IDLOC246                         002000F6
_IDLOC247                         002000F7
_IDLOC248                         002000F8
_IDLOC249                         002000F9
_IDLOC25                          00200019
_IDLOC250                         002000FA
_IDLOC251                         002000FB
_IDLOC252                         002000FC
_IDLOC253                         002000FD
_IDLOC254                         002000FE
_IDLOC255                         002000FF
_IDLOC26                          0020001A
_IDLOC27                          0020001B
_IDLOC28                          0020001C
_IDLOC29                          0020001D
_IDLOC3                           00200003
_IDLOC30                          0020001E
_IDLOC31                          0020001F
_IDLOC32                          00200020
_IDLOC33                          00200021
_IDLOC34                          00200022
_IDLOC35                          00200023
_IDLOC36                          00200024
_IDLOC37                          00200025
_IDLOC38                          00200026
_IDLOC39                          00200027
_IDLOC4                           00200004
_IDLOC40                          00200028
_IDLOC41                          00200029
_IDLOC42                          0020002A
_IDLOC43                          0020002B
_IDLOC44                          0020002C
_IDLOC45                          0020002D
_IDLOC46                          0020002E
_IDLOC47                          0020002F
_IDLOC48                          00200030
_IDLOC49                          00200031
_IDLOC5                           00200005
_IDLOC50                          00200032
_IDLOC51                          00200033
_IDLOC52                          00200034
_IDLOC53                          00200035
_IDLOC54                          00200036
_IDLOC55                          00200037
_IDLOC56                          00200038
MPASM 5.87        SERIALINTERRUPTCOUNTER.ASM   1-27-2021  12:24:50         PAGE 77


SYMBOL TABLE
  LABEL                             VALUE 

_IDLOC57                          00200039
_IDLOC58                          0020003A
_IDLOC59                          0020003B
_IDLOC6                           00200006
_IDLOC60                          0020003C
_IDLOC61                          0020003D
_IDLOC62                          0020003E
_IDLOC63                          0020003F
_IDLOC64                          00200040
_IDLOC65                          00200041
_IDLOC66                          00200042
_IDLOC67                          00200043
_IDLOC68                          00200044
_IDLOC69                          00200045
_IDLOC7                           00200007
_IDLOC70                          00200046
_IDLOC71                          00200047
_IDLOC72                          00200048
_IDLOC73                          00200049
_IDLOC74                          0020004A
_IDLOC75                          0020004B
_IDLOC76                          0020004C
_IDLOC77                          0020004D
_IDLOC78                          0020004E
_IDLOC79                          0020004F
_IDLOC8                           00200008
_IDLOC80                          00200050
_IDLOC81                          00200051
_IDLOC82                          00200052
_IDLOC83                          00200053
_IDLOC84                          00200054
_IDLOC85                          00200055
_IDLOC86                          00200056
_IDLOC87                          00200057
_IDLOC88                          00200058
_IDLOC89                          00200059
_IDLOC9                           00200009
_IDLOC90                          0020005A
_IDLOC91                          0020005B
_IDLOC92                          0020005C
_IDLOC93                          0020005D
_IDLOC94                          0020005E
_IDLOC95                          0020005F
_IDLOC96                          00200060
_IDLOC97                          00200061
_IDLOC98                          00200062
_IDLOC99                          00200063
_LPBOREN_OFF_2L                   000000FF
_LPBOREN_ON_2L                    000000DF
_LVP_OFF_4H                       000000DF
_LVP_ON_4H                        000000FF
_MCLRE_EXTMCLR_2L                 000000FF
_MCLRE_INTMCLR_2L                 000000FE
MPASM 5.87        SERIALINTERRUPTCOUNTER.ASM   1-27-2021  12:24:50         PAGE 78


SYMBOL TABLE
  LABEL                             VALUE 

_PPS1WAY_OFF_2H                   000000F7
_PPS1WAY_ON_2H                    000000FF
_PWRTE_OFF_2L                     000000FF
_PWRTE_ON_2L                      000000FD
_RSTOSC_EXTOSC_1L                 000000FF
_RSTOSC_EXTOSC_4PLL_1L            000000AF
_RSTOSC_HFINTOSC_1MHZ_1L          000000EF
_RSTOSC_HFINTOSC_64MHZ_1L         0000008F
_RSTOSC_LFINTOSC_1L               000000DF
_RSTOSC_RESERVED_1_1L             0000009F
_RSTOSC_RESERVED_2_1L             000000BF
_RSTOSC_SOSC_1L                   000000CF
_SCANE_OFF_4H                     000000EF
_SCANE_ON_4H                      000000FF
_STVREN_OFF_2H                    000000EF
_STVREN_ON_2H                     000000FF
_WDTCCS_HFINTOSC_3H               000000CF
_WDTCCS_LFINTOSC_3H               000000C7
_WDTCCS_SC_3H                     000000FF
_WDTCPS_WDTCPS_0_3L               000000E0
_WDTCPS_WDTCPS_10_3L              000000EA
_WDTCPS_WDTCPS_11_3L              000000EB
_WDTCPS_WDTCPS_12_3L              000000EC
_WDTCPS_WDTCPS_13_3L              000000ED
_WDTCPS_WDTCPS_14_3L              000000EE
_WDTCPS_WDTCPS_15_3L              000000EF
_WDTCPS_WDTCPS_16_3L              000000F0
_WDTCPS_WDTCPS_17_3L              000000F1
_WDTCPS_WDTCPS_18_3L              000000F2
_WDTCPS_WDTCPS_19_3L              000000F3
_WDTCPS_WDTCPS_1_3L               000000E1
_WDTCPS_WDTCPS_20_3L              000000F4
_WDTCPS_WDTCPS_21_3L              000000F5
_WDTCPS_WDTCPS_22_3L              000000F6
_WDTCPS_WDTCPS_23_3L              000000F7
_WDTCPS_WDTCPS_24_3L              000000F8
_WDTCPS_WDTCPS_25_3L              000000F9
_WDTCPS_WDTCPS_26_3L              000000FA
_WDTCPS_WDTCPS_27_3L              000000FB
_WDTCPS_WDTCPS_28_3L              000000FC
_WDTCPS_WDTCPS_29_3L              000000FD
_WDTCPS_WDTCPS_2_3L               000000E2
_WDTCPS_WDTCPS_30_3L              000000FE
_WDTCPS_WDTCPS_31_3L              000000FF
_WDTCPS_WDTCPS_3_3L               000000E3
_WDTCPS_WDTCPS_4_3L               000000E4
_WDTCPS_WDTCPS_5_3L               000000E5
_WDTCPS_WDTCPS_6_3L               000000E6
_WDTCPS_WDTCPS_7_3L               000000E7
_WDTCPS_WDTCPS_8_3L               000000E8
_WDTCPS_WDTCPS_9_3L               000000E9
_WDTCWS_WDTCWS_0_3H               000000F8
_WDTCWS_WDTCWS_1_3H               000000F9
MPASM 5.87        SERIALINTERRUPTCOUNTER.ASM   1-27-2021  12:24:50         PAGE 79


SYMBOL TABLE
  LABEL                             VALUE 

_WDTCWS_WDTCWS_2_3H               000000FA
_WDTCWS_WDTCWS_3_3H               000000FB
_WDTCWS_WDTCWS_4_3H               000000FC
_WDTCWS_WDTCWS_5_3H               000000FD
_WDTCWS_WDTCWS_6_3H               000000FE
_WDTCWS_WDTCWS_7_3H               000000FF
_WDTE_NSLEEP_3L                   000000DF
_WDTE_OFF_3L                      0000009F
_WDTE_ON_3L                       000000FF
_WDTE_SWDTEN_3L                   000000BF
_WRT0_OFF_4L                      000000FF
_WRT0_ON_4L                       000000FE
_WRT1_OFF_4L                      000000FF
_WRT1_ON_4L                       000000FD
_WRT2_OFF_4L                      000000FF
_WRT2_ON_4L                       000000FB
_WRT3_OFF_4L                      000000FF
_WRT3_ON_4L                       000000F7
_WRT4_OFF_4L                      000000FF
_WRT4_ON_4L                       000000EF
_WRT5_OFF_4L                      000000FF
_WRT5_ON_4L                       000000DF
_WRT6_OFF_4L                      000000FF
_WRT6_ON_4L                       000000BF
_WRT7_OFF_4L                      000000FF
_WRT7_ON_4L                       0000007F
_WRTB_OFF_4H                      000000FF
_WRTB_ON_4H                       000000FD
_WRTC_OFF_4H                      000000FF
_WRTC_ON_4H                       000000FE
_WRTD_OFF_4H                      000000FF
_WRTD_ON_4H                       000000FB
_XINST_OFF_2H                     000000FF
_XINST_ON_2H                      0000007F
_ZCD_OFF_2H                       000000FF
_ZCD_ON_2H                        000000FB
__18F47Q10                        00000001
__DEBUG                           
__MPLAB_DEBUGGER_PK3              1

Errors   :     0
Warnings :     0 reported,     0 suppressed
Messages :     0 reported,     0 suppressed

